
uad.elf:     file format elf32-avr

Sections:
Idx Name          Size      VMA       LMA       File off  Algn
  0 .text         00000faa  00000000  00000000  00000094  2**1
                  CONTENTS, ALLOC, LOAD, READONLY, CODE
  1 .data         0000003c  00800060  00000faa  0000103e  2**0
                  CONTENTS, ALLOC, LOAD, DATA
  2 .bss          00000034  0080009c  0080009c  0000107a  2**0
                  ALLOC
  3 .comment      00000030  00000000  00000000  0000107a  2**0
                  CONTENTS, READONLY
  4 .note.gnu.avr.deviceinfo 0000003c  00000000  00000000  000010ac  2**2
                  CONTENTS, READONLY
  5 .debug_aranges 00000078  00000000  00000000  000010e8  2**0
                  CONTENTS, READONLY, DEBUGGING
  6 .debug_info   00001d89  00000000  00000000  00001160  2**0
                  CONTENTS, READONLY, DEBUGGING
  7 .debug_abbrev 00000642  00000000  00000000  00002ee9  2**0
                  CONTENTS, READONLY, DEBUGGING
  8 .debug_line   000009e3  00000000  00000000  0000352b  2**0
                  CONTENTS, READONLY, DEBUGGING
  9 .debug_frame  00000114  00000000  00000000  00003f10  2**2
                  CONTENTS, READONLY, DEBUGGING
 10 .debug_str    00000439  00000000  00000000  00004024  2**0
                  CONTENTS, READONLY, DEBUGGING
 11 .debug_loc    00002597  00000000  00000000  0000445d  2**0
                  CONTENTS, READONLY, DEBUGGING
 12 .debug_ranges 00000068  00000000  00000000  000069f4  2**0
                  CONTENTS, READONLY, DEBUGGING

Disassembly of section .text:

00000000 <__vectors>:
   0:	12 c0       	rjmp	.+36     	; 0x26 <__ctors_end>
   2:	2c c0       	rjmp	.+88     	; 0x5c <__bad_interrupt>
   4:	2b c0       	rjmp	.+86     	; 0x5c <__bad_interrupt>
   6:	2a c0       	rjmp	.+84     	; 0x5c <__bad_interrupt>
   8:	29 c0       	rjmp	.+82     	; 0x5c <__bad_interrupt>
   a:	28 c0       	rjmp	.+80     	; 0x5c <__bad_interrupt>
   c:	27 c0       	rjmp	.+78     	; 0x5c <__bad_interrupt>
   e:	26 c0       	rjmp	.+76     	; 0x5c <__bad_interrupt>
  10:	25 c0       	rjmp	.+74     	; 0x5c <__bad_interrupt>
  12:	24 c0       	rjmp	.+72     	; 0x5c <__bad_interrupt>
  14:	23 c0       	rjmp	.+70     	; 0x5c <__bad_interrupt>
  16:	22 c0       	rjmp	.+68     	; 0x5c <__bad_interrupt>
  18:	21 c0       	rjmp	.+66     	; 0x5c <__bad_interrupt>
  1a:	20 c0       	rjmp	.+64     	; 0x5c <__bad_interrupt>
  1c:	1f c0       	rjmp	.+62     	; 0x5c <__bad_interrupt>
  1e:	1e c0       	rjmp	.+60     	; 0x5c <__bad_interrupt>
  20:	1d c0       	rjmp	.+58     	; 0x5c <__bad_interrupt>
  22:	1c c0       	rjmp	.+56     	; 0x5c <__bad_interrupt>
  24:	1b c0       	rjmp	.+54     	; 0x5c <__bad_interrupt>

00000026 <__ctors_end>:
  26:	11 24       	eor	r1, r1
  28:	1f be       	out	0x3f, r1	; 63
  2a:	cf e5       	ldi	r28, 0x5F	; 95
  2c:	d4 e0       	ldi	r29, 0x04	; 4
  2e:	de bf       	out	0x3e, r29	; 62
  30:	cd bf       	out	0x3d, r28	; 61

00000032 <__do_copy_data>:
  32:	10 e0       	ldi	r17, 0x00	; 0
  34:	a0 e6       	ldi	r26, 0x60	; 96
  36:	b0 e0       	ldi	r27, 0x00	; 0
  38:	ea ea       	ldi	r30, 0xAA	; 170
  3a:	ff e0       	ldi	r31, 0x0F	; 15
  3c:	02 c0       	rjmp	.+4      	; 0x42 <__SREG__+0x3>
  3e:	05 90       	lpm	r0, Z+
  40:	0d 92       	st	X+, r0
  42:	ac 39       	cpi	r26, 0x9C	; 156
  44:	b1 07       	cpc	r27, r17
  46:	d9 f7       	brne	.-10     	; 0x3e <__SP_H__>

00000048 <__do_clear_bss>:
  48:	20 e0       	ldi	r18, 0x00	; 0
  4a:	ac e9       	ldi	r26, 0x9C	; 156
  4c:	b0 e0       	ldi	r27, 0x00	; 0
  4e:	01 c0       	rjmp	.+2      	; 0x52 <.do_clear_bss_start>

00000050 <.do_clear_bss_loop>:
  50:	1d 92       	st	X+, r1

00000052 <.do_clear_bss_start>:
  52:	a0 3d       	cpi	r26, 0xD0	; 208
  54:	b2 07       	cpc	r27, r18
  56:	e1 f7       	brne	.-8      	; 0x50 <.do_clear_bss_loop>
  58:	16 d0       	rcall	.+44     	; 0x86 <main>
  5a:	a5 c7       	rjmp	.+3914   	; 0xfa6 <_exit>

0000005c <__bad_interrupt>:
  5c:	d1 cf       	rjmp	.-94     	; 0x0 <__vectors>

0000005e <delay_counters>:
	READ_BYTE = TWDR;

	TWCR = (1<<TWINT)|(1<<TWEN)|(1<<TWSTO);
	
	return READ_BYTE;
  5e:	ab 01       	movw	r20, r22
  60:	bc 01       	movw	r22, r24
  62:	41 15       	cp	r20, r1
  64:	51 05       	cpc	r21, r1
  66:	61 05       	cpc	r22, r1
  68:	71 05       	cpc	r23, r1
  6a:	61 f0       	breq	.+24     	; 0x84 <delay_counters+0x26>
  6c:	80 e0       	ldi	r24, 0x00	; 0
  6e:	90 e0       	ldi	r25, 0x00	; 0
  70:	dc 01       	movw	r26, r24
  72:	00 00       	nop
  74:	01 96       	adiw	r24, 0x01	; 1
  76:	a1 1d       	adc	r26, r1
  78:	b1 1d       	adc	r27, r1
  7a:	48 17       	cp	r20, r24
  7c:	59 07       	cpc	r21, r25
  7e:	6a 07       	cpc	r22, r26
  80:	7b 07       	cpc	r23, r27
  82:	b9 f7       	brne	.-18     	; 0x72 <delay_counters+0x14>
  84:	08 95       	ret

00000086 <main>:
float alpha = 0.2, float_ADC3 = 0, float_ADC3_last = 0;

int count = 0, limit = 0;

int main(void)
{
  86:	cf 93       	push	r28
  88:	df 93       	push	r29
  8a:	00 d0       	rcall	.+0      	; 0x8c <main+0x6>
  8c:	00 d0       	rcall	.+0      	; 0x8e <main+0x8>
  8e:	cd b7       	in	r28, 0x3d	; 61
  90:	de b7       	in	r29, 0x3e	; 62
  92:	ae e6       	ldi	r26, 0x6E	; 110
  94:	b0 e0       	ldi	r27, 0x00	; 0
  96:	12 96       	adiw	r26, 0x02	; 2
  98:	2d 91       	ld	r18, X+
  9a:	3c 91       	ld	r19, X
  9c:	13 97       	sbiw	r26, 0x03	; 3
  9e:	14 96       	adiw	r26, 0x04	; 4
  a0:	8c 91       	ld	r24, X
  a2:	14 97       	sbiw	r26, 0x04	; 4
    LED8 = struct_GPIO_changeName(C4);
  a4:	0f 2e       	mov	r0, r31
  a6:	fb ec       	ldi	r31, 0xCB	; 203
  a8:	8f 2e       	mov	r8, r31
  aa:	f0 e0       	ldi	r31, 0x00	; 0
  ac:	9f 2e       	mov	r9, r31
  ae:	f0 2d       	mov	r31, r0
  b0:	4d 91       	ld	r20, X+
  b2:	5c 91       	ld	r21, X
  b4:	d4 01       	movw	r26, r8
  b6:	11 96       	adiw	r26, 0x01	; 1
  b8:	5c 93       	st	X, r21
  ba:	4e 93       	st	-X, r20
  bc:	13 96       	adiw	r26, 0x03	; 3
  be:	3c 93       	st	X, r19
  c0:	2e 93       	st	-X, r18
  c2:	12 97       	sbiw	r26, 0x02	; 2
  c4:	14 96       	adiw	r26, 0x04	; 4
  c6:	8c 93       	st	X, r24
  c8:	49 e6       	ldi	r20, 0x69	; 105
  ca:	50 e0       	ldi	r21, 0x00	; 0
  cc:	20 91 6b 00 	lds	r18, 0x006B	; 0x80006b <D3+0x2>
  d0:	30 91 6c 00 	lds	r19, 0x006C	; 0x80006c <D3+0x3>
  d4:	80 91 6d 00 	lds	r24, 0x006D	; 0x80006d <D3+0x4>
	LED7 = struct_GPIO_changeName(D3);
  d8:	a7 eb       	ldi	r26, 0xB7	; 183
  da:	b0 e0       	ldi	r27, 0x00	; 0
  dc:	fa 01       	movw	r30, r20
  de:	40 81       	ld	r20, Z
  e0:	51 81       	ldd	r21, Z+1	; 0x01
  e2:	11 96       	adiw	r26, 0x01	; 1
  e4:	5c 93       	st	X, r21
  e6:	4e 93       	st	-X, r20
  e8:	13 96       	adiw	r26, 0x03	; 3
  ea:	3c 93       	st	X, r19
  ec:	2e 93       	st	-X, r18
  ee:	12 97       	sbiw	r26, 0x02	; 2
  f0:	14 96       	adiw	r26, 0x04	; 4
  f2:	8c 93       	st	X, r24
  f4:	14 97       	sbiw	r26, 0x04	; 4
  f6:	84 e6       	ldi	r24, 0x64	; 100
  f8:	90 e0       	ldi	r25, 0x00	; 0
  fa:	fc 01       	movw	r30, r24
  fc:	42 81       	ldd	r20, Z+2	; 0x02
  fe:	53 81       	ldd	r21, Z+3	; 0x03
 100:	24 81       	ldd	r18, Z+4	; 0x04
	LED6 = struct_GPIO_changeName(D4);
 102:	0f 2e       	mov	r0, r31
 104:	f8 ea       	ldi	r31, 0xA8	; 168
 106:	6f 2e       	mov	r6, r31
 108:	f0 e0       	ldi	r31, 0x00	; 0
 10a:	7f 2e       	mov	r7, r31
 10c:	f0 2d       	mov	r31, r0
 10e:	80 81       	ld	r24, Z
 110:	91 81       	ldd	r25, Z+1	; 0x01
 112:	f3 01       	movw	r30, r6
 114:	91 83       	std	Z+1, r25	; 0x01
 116:	80 83       	st	Z, r24
 118:	50 93 ab 00 	sts	0x00AB, r21	; 0x8000ab <LED6+0x3>
 11c:	40 93 aa 00 	sts	0x00AA, r20	; 0x8000aa <LED6+0x2>
 120:	20 93 ac 00 	sts	0x00AC, r18	; 0x8000ac <LED6+0x4>
 124:	2c e8       	ldi	r18, 0x8C	; 140
 126:	30 e0       	ldi	r19, 0x00	; 0
 128:	f9 01       	movw	r30, r18
 12a:	62 81       	ldd	r22, Z+2	; 0x02
 12c:	73 81       	ldd	r23, Z+3	; 0x03
 12e:	44 81       	ldd	r20, Z+4	; 0x04
	LED5 = struct_GPIO_changeName(B3);
 130:	81 ec       	ldi	r24, 0xC1	; 193
 132:	90 e0       	ldi	r25, 0x00	; 0
 134:	20 81       	ld	r18, Z
 136:	31 81       	ldd	r19, Z+1	; 0x01
 138:	fc 01       	movw	r30, r24
 13a:	31 83       	std	Z+1, r19	; 0x01
 13c:	20 83       	st	Z, r18
 13e:	73 83       	std	Z+3, r23	; 0x03
 140:	62 83       	std	Z+2, r22	; 0x02
 142:	44 83       	std	Z+4, r20	; 0x04
 144:	47 e8       	ldi	r20, 0x87	; 135
 146:	50 e0       	ldi	r21, 0x00	; 0
 148:	fa 01       	movw	r30, r20
 14a:	02 81       	ldd	r16, Z+2	; 0x02
 14c:	13 81       	ldd	r17, Z+3	; 0x03
 14e:	64 81       	ldd	r22, Z+4	; 0x04
	LED4 = struct_GPIO_changeName(B4);
 150:	26 ec       	ldi	r18, 0xC6	; 198
 152:	30 e0       	ldi	r19, 0x00	; 0
 154:	40 81       	ld	r20, Z
 156:	51 81       	ldd	r21, Z+1	; 0x01
 158:	f9 01       	movw	r30, r18
 15a:	51 83       	std	Z+1, r21	; 0x01
 15c:	40 83       	st	Z, r20
 15e:	13 83       	std	Z+3, r17	; 0x03
 160:	02 83       	std	Z+2, r16	; 0x02
 162:	64 83       	std	Z+4, r22	; 0x04
 164:	62 e8       	ldi	r22, 0x82	; 130
 166:	70 e0       	ldi	r23, 0x00	; 0
 168:	fb 01       	movw	r30, r22
 16a:	e2 80       	ldd	r14, Z+2	; 0x02
 16c:	f3 80       	ldd	r15, Z+3	; 0x03
 16e:	14 81       	ldd	r17, Z+4	; 0x04
	LED3 = struct_GPIO_changeName(C0);
 170:	42 eb       	ldi	r20, 0xB2	; 178
 172:	50 e0       	ldi	r21, 0x00	; 0
 174:	60 81       	ld	r22, Z
 176:	71 81       	ldd	r23, Z+1	; 0x01
 178:	fa 01       	movw	r30, r20
 17a:	71 83       	std	Z+1, r23	; 0x01
 17c:	60 83       	st	Z, r22
 17e:	f3 82       	std	Z+3, r15	; 0x03
 180:	e2 82       	std	Z+2, r14	; 0x02
 182:	14 83       	std	Z+4, r17	; 0x04
 184:	0d e7       	ldi	r16, 0x7D	; 125
 186:	10 e0       	ldi	r17, 0x00	; 0
 188:	f8 01       	movw	r30, r16
 18a:	c2 80       	ldd	r12, Z+2	; 0x02
 18c:	d3 80       	ldd	r13, Z+3	; 0x03
 18e:	f4 80       	ldd	r15, Z+4	; 0x04
	LED2 = struct_GPIO_changeName(C1);
 190:	6c eb       	ldi	r22, 0xBC	; 188
 192:	70 e0       	ldi	r23, 0x00	; 0
 194:	00 81       	ld	r16, Z
 196:	11 81       	ldd	r17, Z+1	; 0x01
 198:	fb 01       	movw	r30, r22
 19a:	11 83       	std	Z+1, r17	; 0x01
 19c:	00 83       	st	Z, r16
 19e:	d3 82       	std	Z+3, r13	; 0x03
 1a0:	c2 82       	std	Z+2, r12	; 0x02
 1a2:	f4 82       	std	Z+4, r15	; 0x04
 1a4:	0f 2e       	mov	r0, r31
 1a6:	f8 e7       	ldi	r31, 0x78	; 120
 1a8:	ef 2e       	mov	r14, r31
 1aa:	f0 e0       	ldi	r31, 0x00	; 0
 1ac:	ff 2e       	mov	r15, r31
 1ae:	f0 2d       	mov	r31, r0
 1b0:	f7 01       	movw	r30, r14
 1b2:	00 81       	ld	r16, Z
 1b4:	11 81       	ldd	r17, Z+1	; 0x01
 1b6:	c2 80       	ldd	r12, Z+2	; 0x02
 1b8:	d3 80       	ldd	r13, Z+3	; 0x03
 1ba:	b4 80       	ldd	r11, Z+4	; 0x04
	LED1 = struct_GPIO_changeName(C2);
 1bc:	0f 2e       	mov	r0, r31
 1be:	fd ea       	ldi	r31, 0xAD	; 173
 1c0:	ef 2e       	mov	r14, r31
 1c2:	f0 e0       	ldi	r31, 0x00	; 0
 1c4:	ff 2e       	mov	r15, r31
 1c6:	f0 2d       	mov	r31, r0
 1c8:	f7 01       	movw	r30, r14
 1ca:	11 83       	std	Z+1, r17	; 0x01
 1cc:	00 83       	st	Z, r16
 1ce:	d3 82       	std	Z+3, r13	; 0x03
 1d0:	c2 82       	std	Z+2, r12	; 0x02
 1d2:	b4 82       	std	Z+4, r11	; 0x04
	};
	/* конец определения всех возможных GPIO*/

void pinMode(struct_GPIO port_and_number, enumLevel Level)	{
	byte byteBuferPort = *port_and_number.DDR;
	byteBuferPort &= ~port_and_number.pinNumber;
 1d4:	eb 2c       	mov	r14, r11
 1d6:	e0 94       	com	r14
 1d8:	f8 01       	movw	r30, r16
 1da:	f0 80       	ld	r15, Z
 1dc:	fe 20       	and	r15, r14
	if (Level)	{
		Level = 0b11111111;
	}
	byteBuferPort |= (port_and_number.pinNumber & Level);
	*port_and_number.DDR = byteBuferPort;
 1de:	bf 28       	or	r11, r15
 1e0:	b0 82       	st	Z, r11
 1e2:	fb 01       	movw	r30, r22
 1e4:	00 81       	ld	r16, Z
 1e6:	11 81       	ldd	r17, Z+1	; 0x01
 1e8:	64 81       	ldd	r22, Z+4	; 0x04
	};
	/* конец определения всех возможных GPIO*/

void pinMode(struct_GPIO port_and_number, enumLevel Level)	{
	byte byteBuferPort = *port_and_number.DDR;
	byteBuferPort &= ~port_and_number.pinNumber;
 1ea:	f6 2e       	mov	r15, r22
 1ec:	f0 94       	com	r15
 1ee:	f8 01       	movw	r30, r16
 1f0:	70 81       	ld	r23, Z
 1f2:	7f 21       	and	r23, r15
	if (Level)	{
		Level = 0b11111111;
	}
	byteBuferPort |= (port_and_number.pinNumber & Level);
	*port_and_number.DDR = byteBuferPort;
 1f4:	67 2b       	or	r22, r23
 1f6:	60 83       	st	Z, r22
 1f8:	fa 01       	movw	r30, r20
 1fa:	60 81       	ld	r22, Z
 1fc:	71 81       	ldd	r23, Z+1	; 0x01
 1fe:	44 81       	ldd	r20, Z+4	; 0x04
	};
	/* конец определения всех возможных GPIO*/

void pinMode(struct_GPIO port_and_number, enumLevel Level)	{
	byte byteBuferPort = *port_and_number.DDR;
	byteBuferPort &= ~port_and_number.pinNumber;
 200:	14 2f       	mov	r17, r20
 202:	10 95       	com	r17
 204:	fb 01       	movw	r30, r22
 206:	50 81       	ld	r21, Z
 208:	51 23       	and	r21, r17
	if (Level)	{
		Level = 0b11111111;
	}
	byteBuferPort |= (port_and_number.pinNumber & Level);
	*port_and_number.DDR = byteBuferPort;
 20a:	45 2b       	or	r20, r21
 20c:	40 83       	st	Z, r20
 20e:	f9 01       	movw	r30, r18
 210:	40 81       	ld	r20, Z
 212:	51 81       	ldd	r21, Z+1	; 0x01
 214:	24 81       	ldd	r18, Z+4	; 0x04
	};
	/* конец определения всех возможных GPIO*/

void pinMode(struct_GPIO port_and_number, enumLevel Level)	{
	byte byteBuferPort = *port_and_number.DDR;
	byteBuferPort &= ~port_and_number.pinNumber;
 216:	62 2f       	mov	r22, r18
 218:	60 95       	com	r22
 21a:	fa 01       	movw	r30, r20
 21c:	30 81       	ld	r19, Z
 21e:	36 23       	and	r19, r22
	if (Level)	{
		Level = 0b11111111;
	}
	byteBuferPort |= (port_and_number.pinNumber & Level);
	*port_and_number.DDR = byteBuferPort;
 220:	23 2b       	or	r18, r19
 222:	20 83       	st	Z, r18
 224:	fc 01       	movw	r30, r24
 226:	20 81       	ld	r18, Z
 228:	31 81       	ldd	r19, Z+1	; 0x01
 22a:	84 81       	ldd	r24, Z+4	; 0x04
	};
	/* конец определения всех возможных GPIO*/

void pinMode(struct_GPIO port_and_number, enumLevel Level)	{
	byte byteBuferPort = *port_and_number.DDR;
	byteBuferPort &= ~port_and_number.pinNumber;
 22c:	48 2f       	mov	r20, r24
 22e:	40 95       	com	r20
 230:	f9 01       	movw	r30, r18
 232:	90 81       	ld	r25, Z
 234:	94 23       	and	r25, r20
	if (Level)	{
		Level = 0b11111111;
	}
	byteBuferPort |= (port_and_number.pinNumber & Level);
	*port_and_number.DDR = byteBuferPort;
 236:	89 2b       	or	r24, r25
 238:	80 83       	st	Z, r24
 23a:	f3 01       	movw	r30, r6
 23c:	20 81       	ld	r18, Z
 23e:	31 81       	ldd	r19, Z+1	; 0x01
 240:	80 91 ac 00 	lds	r24, 0x00AC	; 0x8000ac <LED6+0x4>
	};
	/* конец определения всех возможных GPIO*/

void pinMode(struct_GPIO port_and_number, enumLevel Level)	{
	byte byteBuferPort = *port_and_number.DDR;
	byteBuferPort &= ~port_and_number.pinNumber;
 244:	48 2f       	mov	r20, r24
 246:	40 95       	com	r20
 248:	f9 01       	movw	r30, r18
 24a:	90 81       	ld	r25, Z
 24c:	94 23       	and	r25, r20
	if (Level)	{
		Level = 0b11111111;
	}
	byteBuferPort |= (port_and_number.pinNumber & Level);
	*port_and_number.DDR = byteBuferPort;
 24e:	89 2b       	or	r24, r25
 250:	80 83       	st	Z, r24
 252:	4d 91       	ld	r20, X+
 254:	5c 91       	ld	r21, X
 256:	11 97       	sbiw	r26, 0x01	; 1
 258:	14 96       	adiw	r26, 0x04	; 4
 25a:	8c 91       	ld	r24, X
	};
	/* конец определения всех возможных GPIO*/

void pinMode(struct_GPIO port_and_number, enumLevel Level)	{
	byte byteBuferPort = *port_and_number.DDR;
	byteBuferPort &= ~port_and_number.pinNumber;
 25c:	28 2f       	mov	r18, r24
 25e:	20 95       	com	r18
 260:	da 01       	movw	r26, r20
 262:	9c 91       	ld	r25, X
 264:	92 23       	and	r25, r18
	if (Level)	{
		Level = 0b11111111;
	}
	byteBuferPort |= (port_and_number.pinNumber & Level);
	*port_and_number.DDR = byteBuferPort;
 266:	89 2b       	or	r24, r25
 268:	8c 93       	st	X, r24
 26a:	f4 01       	movw	r30, r8
 26c:	a0 81       	ld	r26, Z
 26e:	b1 81       	ldd	r27, Z+1	; 0x01
 270:	84 81       	ldd	r24, Z+4	; 0x04
	};
	/* конец определения всех возможных GPIO*/

void pinMode(struct_GPIO port_and_number, enumLevel Level)	{
	byte byteBuferPort = *port_and_number.DDR;
	byteBuferPort &= ~port_and_number.pinNumber;
 272:	28 2f       	mov	r18, r24
 274:	20 95       	com	r18
 276:	9c 91       	ld	r25, X
 278:	92 23       	and	r25, r18
	if (Level)	{
		Level = 0b11111111;
	}
	byteBuferPort |= (port_and_number.pinNumber & Level);
	*port_and_number.DDR = byteBuferPort;
 27a:	89 2b       	or	r24, r25
 27c:	8c 93       	st	X, r24
 27e:	e3 e7       	ldi	r30, 0x73	; 115
 280:	f0 e0       	ldi	r31, 0x00	; 0
 282:	a0 81       	ld	r26, Z
 284:	b1 81       	ldd	r27, Z+1	; 0x01
	};
	/* конец определения всех возможных GPIO*/

void pinMode(struct_GPIO port_and_number, enumLevel Level)	{
	byte byteBuferPort = *port_and_number.DDR;
	byteBuferPort &= ~port_and_number.pinNumber;
 286:	84 81       	ldd	r24, Z+4	; 0x04
 288:	98 2f       	mov	r25, r24
 28a:	90 95       	com	r25
 28c:	8c 91       	ld	r24, X
 28e:	89 23       	and	r24, r25
	if (Level)	{
		Level = 0b11111111;
	}
	byteBuferPort |= (port_and_number.pinNumber & Level);
	*port_and_number.DDR = byteBuferPort;
 290:	8c 93       	st	X, r24
 292:	a2 81       	ldd	r26, Z+2	; 0x02
 294:	b3 81       	ldd	r27, Z+3	; 0x03
}

void digitalWrite(struct_GPIO port_and_number, enumLevel Level)	{
	byte byteBuferPort = *port_and_number.PORT;
	byteBuferPort &= ~port_and_number.pinNumber;
 296:	84 81       	ldd	r24, Z+4	; 0x04
 298:	98 2f       	mov	r25, r24
 29a:	90 95       	com	r25
 29c:	8c 91       	ld	r24, X
 29e:	89 23       	and	r24, r25
	if (Level)	{
		Level = 0b11111111;
	}
	byteBuferPort |= (port_and_number.pinNumber & Level);
	*port_and_number.PORT = byteBuferPort;
 2a0:	8c 93       	st	X, r24
	pinMode(LED7, OUTPUT);
	pinMode(LED8, OUTPUT);

	pinMode(C3, INPUT);
	digitalWrite(C3, LOW);
	ADMUX = 0b01100011;	// ARREF=Ucc, ADCH, canal = ADC3
 2a2:	83 e6       	ldi	r24, 0x63	; 99
 2a4:	87 b9       	out	0x07, r24	; 7
	// 0 -> REF1, 1 -> REF2, 2 -> ADLAR, 3 -> zero, 4 -> MUX3, 5 -> MUX2, 6 -> MUX1, 7 -> MUX0
	ADCSRA = 0b11100111;	// ADC=on, multiple, prescal = 128
 2a6:	87 ee       	ldi	r24, 0xE7	; 231
 2a8:	86 b9       	out	0x06, r24	; 6
 2aa:	a6 e9       	ldi	r26, 0x96	; 150
 2ac:	b0 e0       	ldi	r27, 0x00	; 0
 2ae:	ed 91       	ld	r30, X+
 2b0:	fc 91       	ld	r31, X
 2b2:	11 97       	sbiw	r26, 0x01	; 1
 2b4:	14 96       	adiw	r26, 0x04	; 4
 2b6:	8c 91       	ld	r24, X
	};
	/* конец определения всех возможных GPIO*/

void pinMode(struct_GPIO port_and_number, enumLevel Level)	{
	byte byteBuferPort = *port_and_number.DDR;
	byteBuferPort &= ~port_and_number.pinNumber;
 2b8:	28 2f       	mov	r18, r24
 2ba:	20 95       	com	r18
 2bc:	90 81       	ld	r25, Z
 2be:	92 23       	and	r25, r18
	if (Level)	{
		Level = 0b11111111;
	}
	byteBuferPort |= (port_and_number.pinNumber & Level);
	*port_and_number.DDR = byteBuferPort;
 2c0:	89 2b       	or	r24, r25
 2c2:	80 83       	st	Z, r24
 2c4:	a1 e9       	ldi	r26, 0x91	; 145
 2c6:	b0 e0       	ldi	r27, 0x00	; 0
 2c8:	ed 91       	ld	r30, X+
 2ca:	fc 91       	ld	r31, X
 2cc:	11 97       	sbiw	r26, 0x01	; 1
 2ce:	14 96       	adiw	r26, 0x04	; 4
 2d0:	8c 91       	ld	r24, X
	};
	/* конец определения всех возможных GPIO*/

void pinMode(struct_GPIO port_and_number, enumLevel Level)	{
	byte byteBuferPort = *port_and_number.DDR;
	byteBuferPort &= ~port_and_number.pinNumber;
 2d2:	28 2f       	mov	r18, r24
 2d4:	20 95       	com	r18
 2d6:	90 81       	ld	r25, Z
 2d8:	92 23       	and	r25, r18
	if (Level)	{
		Level = 0b11111111;
	}
	byteBuferPort |= (port_and_number.pinNumber & Level);
	*port_and_number.DDR = byteBuferPort;
 2da:	89 2b       	or	r24, r25
 2dc:	80 83       	st	Z, r24
 2de:	0f 2e       	mov	r0, r31
 2e0:	fd ea       	ldi	r31, 0xAD	; 173
 2e2:	ef 2e       	mov	r14, r31
 2e4:	f0 e0       	ldi	r31, 0x00	; 0
 2e6:	ff 2e       	mov	r15, r31
 2e8:	f0 2d       	mov	r31, r0
 2ea:	0c eb       	ldi	r16, 0xBC	; 188
 2ec:	10 e0       	ldi	r17, 0x00	; 0
 2ee:	0f 2e       	mov	r0, r31
 2f0:	f6 ec       	ldi	r31, 0xC6	; 198
 2f2:	cf 2e       	mov	r12, r31
 2f4:	f0 e0       	ldi	r31, 0x00	; 0
 2f6:	df 2e       	mov	r13, r31
 2f8:	f0 2d       	mov	r31, r0
 2fa:	24 01       	movw	r4, r8
			digitalWrite(LED7, LOW);
			digitalWrite(LED8, LOW);
			limit = 0;
		}
		
		if ( (float_ADC3>10)&(float_ADC3<=30) )	{
 2fc:	33 24       	eor	r3, r3
 2fe:	33 94       	inc	r3
	pinMode(B2, OUTPUT);
	
    while (1) 
    {	

		delay_counters(8);
 300:	68 e0       	ldi	r22, 0x08	; 8
 302:	70 e0       	ldi	r23, 0x00	; 0
 304:	80 e0       	ldi	r24, 0x00	; 0
 306:	90 e0       	ldi	r25, 0x00	; 0
 308:	aa de       	rcall	.-684    	; 0x5e <delay_counters>
		//delay_counters(80);
		
		float_ADC3 = ADCH*alpha + float_ADC3_last*(1-alpha);
 30a:	75 b0       	in	r7, 0x05	; 5
 30c:	80 90 60 00 	lds	r8, 0x0060	; 0x800060 <__data_start>
 310:	90 90 61 00 	lds	r9, 0x0061	; 0x800061 <__data_start+0x1>
 314:	a0 90 62 00 	lds	r10, 0x0062	; 0x800062 <__data_start+0x2>
 318:	b0 90 63 00 	lds	r11, 0x0063	; 0x800063 <__data_start+0x3>
 31c:	a5 01       	movw	r20, r10
 31e:	94 01       	movw	r18, r8
 320:	60 e0       	ldi	r22, 0x00	; 0
 322:	70 e0       	ldi	r23, 0x00	; 0
 324:	80 e8       	ldi	r24, 0x80	; 128
 326:	9f e3       	ldi	r25, 0x3F	; 63
 328:	bc d4       	rcall	.+2424   	; 0xca2 <__subsf3>
 32a:	20 91 a0 00 	lds	r18, 0x00A0	; 0x8000a0 <float_ADC3_last>
 32e:	30 91 a1 00 	lds	r19, 0x00A1	; 0x8000a1 <float_ADC3_last+0x1>
 332:	40 91 a2 00 	lds	r20, 0x00A2	; 0x8000a2 <float_ADC3_last+0x2>
 336:	50 91 a3 00 	lds	r21, 0x00A3	; 0x8000a3 <float_ADC3_last+0x3>
 33a:	d2 d5       	rcall	.+2980   	; 0xee0 <__mulsf3>
 33c:	69 83       	std	Y+1, r22	; 0x01
 33e:	7a 83       	std	Y+2, r23	; 0x02
 340:	8b 83       	std	Y+3, r24	; 0x03
 342:	9c 83       	std	Y+4, r25	; 0x04
 344:	67 2d       	mov	r22, r7
 346:	70 e0       	ldi	r23, 0x00	; 0
 348:	80 e0       	ldi	r24, 0x00	; 0
 34a:	90 e0       	ldi	r25, 0x00	; 0
 34c:	15 d5       	rcall	.+2602   	; 0xd78 <__floatsisf>
 34e:	a5 01       	movw	r20, r10
 350:	94 01       	movw	r18, r8
 352:	c6 d5       	rcall	.+2956   	; 0xee0 <__mulsf3>
 354:	9b 01       	movw	r18, r22
 356:	ac 01       	movw	r20, r24
 358:	69 81       	ldd	r22, Y+1	; 0x01
 35a:	7a 81       	ldd	r23, Y+2	; 0x02
 35c:	8b 81       	ldd	r24, Y+3	; 0x03
 35e:	9c 81       	ldd	r25, Y+4	; 0x04
 360:	a1 d4       	rcall	.+2370   	; 0xca4 <__addsf3>
 362:	60 93 a4 00 	sts	0x00A4, r22	; 0x8000a4 <float_ADC3>
 366:	70 93 a5 00 	sts	0x00A5, r23	; 0x8000a5 <float_ADC3+0x1>
 36a:	80 93 a6 00 	sts	0x00A6, r24	; 0x8000a6 <float_ADC3+0x2>
 36e:	90 93 a7 00 	sts	0x00A7, r25	; 0x8000a7 <float_ADC3+0x3>
		
		if (float_ADC3<=10)	{
 372:	20 e0       	ldi	r18, 0x00	; 0
 374:	30 e0       	ldi	r19, 0x00	; 0
 376:	40 e2       	ldi	r20, 0x20	; 32
 378:	51 e4       	ldi	r21, 0x41	; 65
 37a:	f8 d4       	rcall	.+2544   	; 0xd6c <__cmpsf2>
 37c:	18 16       	cp	r1, r24
 37e:	0c f4       	brge	.+2      	; 0x382 <main+0x2fc>
 380:	58 c0       	rjmp	.+176    	; 0x432 <__LOCK_REGION_LENGTH__+0x32>
 382:	d7 01       	movw	r26, r14
 384:	12 96       	adiw	r26, 0x02	; 2
 386:	ed 91       	ld	r30, X+
 388:	fc 91       	ld	r31, X
 38a:	13 97       	sbiw	r26, 0x03	; 3
}

void digitalWrite(struct_GPIO port_and_number, enumLevel Level)	{
	byte byteBuferPort = *port_and_number.PORT;
	byteBuferPort &= ~port_and_number.pinNumber;
 38c:	14 96       	adiw	r26, 0x04	; 4
 38e:	8c 91       	ld	r24, X
 390:	80 95       	com	r24
 392:	90 81       	ld	r25, Z
 394:	89 23       	and	r24, r25
	if (Level)	{
		Level = 0b11111111;
	}
	byteBuferPort |= (port_and_number.pinNumber & Level);
	*port_and_number.PORT = byteBuferPort;
 396:	80 83       	st	Z, r24
 398:	d8 01       	movw	r26, r16
 39a:	12 96       	adiw	r26, 0x02	; 2
 39c:	ed 91       	ld	r30, X+
 39e:	fc 91       	ld	r31, X
 3a0:	13 97       	sbiw	r26, 0x03	; 3
	*port_and_number.DDR = byteBuferPort;
}

void digitalWrite(struct_GPIO port_and_number, enumLevel Level)	{
	byte byteBuferPort = *port_and_number.PORT;
	byteBuferPort &= ~port_and_number.pinNumber;
 3a2:	14 96       	adiw	r26, 0x04	; 4
 3a4:	8c 91       	ld	r24, X
 3a6:	80 95       	com	r24
 3a8:	90 81       	ld	r25, Z
 3aa:	89 23       	and	r24, r25
	if (Level)	{
		Level = 0b11111111;
	}
	byteBuferPort |= (port_and_number.pinNumber & Level);
	*port_and_number.PORT = byteBuferPort;
 3ac:	80 83       	st	Z, r24
 3ae:	e0 91 b4 00 	lds	r30, 0x00B4	; 0x8000b4 <LED3+0x2>
 3b2:	f0 91 b5 00 	lds	r31, 0x00B5	; 0x8000b5 <LED3+0x3>
	*port_and_number.DDR = byteBuferPort;
}

void digitalWrite(struct_GPIO port_and_number, enumLevel Level)	{
	byte byteBuferPort = *port_and_number.PORT;
	byteBuferPort &= ~port_and_number.pinNumber;
 3b6:	80 91 b6 00 	lds	r24, 0x00B6	; 0x8000b6 <LED3+0x4>
 3ba:	80 95       	com	r24
 3bc:	90 81       	ld	r25, Z
 3be:	89 23       	and	r24, r25
	if (Level)	{
		Level = 0b11111111;
	}
	byteBuferPort |= (port_and_number.pinNumber & Level);
	*port_and_number.PORT = byteBuferPort;
 3c0:	80 83       	st	Z, r24
 3c2:	d6 01       	movw	r26, r12
 3c4:	12 96       	adiw	r26, 0x02	; 2
 3c6:	ed 91       	ld	r30, X+
 3c8:	fc 91       	ld	r31, X
 3ca:	13 97       	sbiw	r26, 0x03	; 3
	*port_and_number.DDR = byteBuferPort;
}

void digitalWrite(struct_GPIO port_and_number, enumLevel Level)	{
	byte byteBuferPort = *port_and_number.PORT;
	byteBuferPort &= ~port_and_number.pinNumber;
 3cc:	14 96       	adiw	r26, 0x04	; 4
 3ce:	8c 91       	ld	r24, X
 3d0:	80 95       	com	r24
 3d2:	90 81       	ld	r25, Z
 3d4:	89 23       	and	r24, r25
	if (Level)	{
		Level = 0b11111111;
	}
	byteBuferPort |= (port_and_number.pinNumber & Level);
	*port_and_number.PORT = byteBuferPort;
 3d6:	80 83       	st	Z, r24
 3d8:	e0 91 c3 00 	lds	r30, 0x00C3	; 0x8000c3 <LED5+0x2>
 3dc:	f0 91 c4 00 	lds	r31, 0x00C4	; 0x8000c4 <LED5+0x3>
	*port_and_number.DDR = byteBuferPort;
}

void digitalWrite(struct_GPIO port_and_number, enumLevel Level)	{
	byte byteBuferPort = *port_and_number.PORT;
	byteBuferPort &= ~port_and_number.pinNumber;
 3e0:	80 91 c5 00 	lds	r24, 0x00C5	; 0x8000c5 <LED5+0x4>
 3e4:	80 95       	com	r24
 3e6:	90 81       	ld	r25, Z
 3e8:	89 23       	and	r24, r25
	if (Level)	{
		Level = 0b11111111;
	}
	byteBuferPort |= (port_and_number.pinNumber & Level);
	*port_and_number.PORT = byteBuferPort;
 3ea:	80 83       	st	Z, r24
 3ec:	e0 91 aa 00 	lds	r30, 0x00AA	; 0x8000aa <LED6+0x2>
 3f0:	f0 91 ab 00 	lds	r31, 0x00AB	; 0x8000ab <LED6+0x3>
	*port_and_number.DDR = byteBuferPort;
}

void digitalWrite(struct_GPIO port_and_number, enumLevel Level)	{
	byte byteBuferPort = *port_and_number.PORT;
	byteBuferPort &= ~port_and_number.pinNumber;
 3f4:	80 91 ac 00 	lds	r24, 0x00AC	; 0x8000ac <LED6+0x4>
 3f8:	80 95       	com	r24
 3fa:	90 81       	ld	r25, Z
 3fc:	89 23       	and	r24, r25
	if (Level)	{
		Level = 0b11111111;
	}
	byteBuferPort |= (port_and_number.pinNumber & Level);
	*port_and_number.PORT = byteBuferPort;
 3fe:	80 83       	st	Z, r24
 400:	e0 91 b9 00 	lds	r30, 0x00B9	; 0x8000b9 <LED7+0x2>
 404:	f0 91 ba 00 	lds	r31, 0x00BA	; 0x8000ba <LED7+0x3>
	*port_and_number.DDR = byteBuferPort;
}

void digitalWrite(struct_GPIO port_and_number, enumLevel Level)	{
	byte byteBuferPort = *port_and_number.PORT;
	byteBuferPort &= ~port_and_number.pinNumber;
 408:	80 91 bb 00 	lds	r24, 0x00BB	; 0x8000bb <LED7+0x4>
 40c:	80 95       	com	r24
 40e:	90 81       	ld	r25, Z
 410:	89 23       	and	r24, r25
	if (Level)	{
		Level = 0b11111111;
	}
	byteBuferPort |= (port_and_number.pinNumber & Level);
	*port_and_number.PORT = byteBuferPort;
 412:	80 83       	st	Z, r24
 414:	d2 01       	movw	r26, r4
 416:	12 96       	adiw	r26, 0x02	; 2
 418:	ed 91       	ld	r30, X+
 41a:	fc 91       	ld	r31, X
 41c:	13 97       	sbiw	r26, 0x03	; 3
	*port_and_number.DDR = byteBuferPort;
}

void digitalWrite(struct_GPIO port_and_number, enumLevel Level)	{
	byte byteBuferPort = *port_and_number.PORT;
	byteBuferPort &= ~port_and_number.pinNumber;
 41e:	14 96       	adiw	r26, 0x04	; 4
 420:	8c 91       	ld	r24, X
 422:	80 95       	com	r24
 424:	90 81       	ld	r25, Z
 426:	89 23       	and	r24, r25
	if (Level)	{
		Level = 0b11111111;
	}
	byteBuferPort |= (port_and_number.pinNumber & Level);
	*port_and_number.PORT = byteBuferPort;
 428:	80 83       	st	Z, r24
			digitalWrite(LED4, LOW);
			digitalWrite(LED5, LOW);
			digitalWrite(LED6, LOW);
			digitalWrite(LED7, LOW);
			digitalWrite(LED8, LOW);
			limit = 0;
 42a:	10 92 9d 00 	sts	0x009D, r1	; 0x80009d <__data_end+0x1>
 42e:	10 92 9c 00 	sts	0x009C, r1	; 0x80009c <__data_end>
		}
		
		if ( (float_ADC3>10)&(float_ADC3<=30) )	{
 432:	80 90 a4 00 	lds	r8, 0x00A4	; 0x8000a4 <float_ADC3>
 436:	90 90 a5 00 	lds	r9, 0x00A5	; 0x8000a5 <float_ADC3+0x1>
 43a:	a0 90 a6 00 	lds	r10, 0x00A6	; 0x8000a6 <float_ADC3+0x2>
 43e:	b0 90 a7 00 	lds	r11, 0x00A7	; 0x8000a7 <float_ADC3+0x3>
 442:	73 2c       	mov	r7, r3
 444:	20 e0       	ldi	r18, 0x00	; 0
 446:	30 e0       	ldi	r19, 0x00	; 0
 448:	40 e2       	ldi	r20, 0x20	; 32
 44a:	51 e4       	ldi	r21, 0x41	; 65
 44c:	c5 01       	movw	r24, r10
 44e:	b4 01       	movw	r22, r8
 450:	43 d5       	rcall	.+2694   	; 0xed8 <__gesf2>
 452:	18 16       	cp	r1, r24
 454:	0c f0       	brlt	.+2      	; 0x458 <__LOCK_REGION_LENGTH__+0x58>
 456:	71 2c       	mov	r7, r1
 458:	77 20       	and	r7, r7
 45a:	09 f4       	brne	.+2      	; 0x45e <__LOCK_REGION_LENGTH__+0x5e>
 45c:	6a c0       	rjmp	.+212    	; 0x532 <__stack+0xd3>
 45e:	73 2c       	mov	r7, r3
 460:	20 e0       	ldi	r18, 0x00	; 0
 462:	30 e0       	ldi	r19, 0x00	; 0
 464:	40 ef       	ldi	r20, 0xF0	; 240
 466:	51 e4       	ldi	r21, 0x41	; 65
 468:	c5 01       	movw	r24, r10
 46a:	b4 01       	movw	r22, r8
 46c:	7f d4       	rcall	.+2302   	; 0xd6c <__cmpsf2>
 46e:	18 16       	cp	r1, r24
 470:	0c f4       	brge	.+2      	; 0x474 <__stack+0x15>
 472:	71 2c       	mov	r7, r1
 474:	77 20       	and	r7, r7
 476:	09 f4       	brne	.+2      	; 0x47a <__stack+0x1b>
 478:	5c c0       	rjmp	.+184    	; 0x532 <__stack+0xd3>
 47a:	d7 01       	movw	r26, r14
 47c:	12 96       	adiw	r26, 0x02	; 2
 47e:	ed 91       	ld	r30, X+
 480:	fc 91       	ld	r31, X
 482:	13 97       	sbiw	r26, 0x03	; 3
 484:	14 96       	adiw	r26, 0x04	; 4
 486:	2c 91       	ld	r18, X
	*port_and_number.DDR = byteBuferPort;
}

void digitalWrite(struct_GPIO port_and_number, enumLevel Level)	{
	byte byteBuferPort = *port_and_number.PORT;
	byteBuferPort &= ~port_and_number.pinNumber;
 488:	82 2f       	mov	r24, r18
 48a:	80 95       	com	r24
 48c:	90 81       	ld	r25, Z
 48e:	89 23       	and	r24, r25
	if (Level)	{
		Level = 0b11111111;
	}
	byteBuferPort |= (port_and_number.pinNumber & Level);
	*port_and_number.PORT = byteBuferPort;
 490:	82 2b       	or	r24, r18
 492:	80 83       	st	Z, r24
 494:	d8 01       	movw	r26, r16
 496:	12 96       	adiw	r26, 0x02	; 2
 498:	ed 91       	ld	r30, X+
 49a:	fc 91       	ld	r31, X
 49c:	13 97       	sbiw	r26, 0x03	; 3
	*port_and_number.DDR = byteBuferPort;
}

void digitalWrite(struct_GPIO port_and_number, enumLevel Level)	{
	byte byteBuferPort = *port_and_number.PORT;
	byteBuferPort &= ~port_and_number.pinNumber;
 49e:	14 96       	adiw	r26, 0x04	; 4
 4a0:	8c 91       	ld	r24, X
 4a2:	80 95       	com	r24
 4a4:	90 81       	ld	r25, Z
 4a6:	89 23       	and	r24, r25
	if (Level)	{
		Level = 0b11111111;
	}
	byteBuferPort |= (port_and_number.pinNumber & Level);
	*port_and_number.PORT = byteBuferPort;
 4a8:	80 83       	st	Z, r24
 4aa:	e0 91 b4 00 	lds	r30, 0x00B4	; 0x8000b4 <LED3+0x2>
 4ae:	f0 91 b5 00 	lds	r31, 0x00B5	; 0x8000b5 <LED3+0x3>
	*port_and_number.DDR = byteBuferPort;
}

void digitalWrite(struct_GPIO port_and_number, enumLevel Level)	{
	byte byteBuferPort = *port_and_number.PORT;
	byteBuferPort &= ~port_and_number.pinNumber;
 4b2:	80 91 b6 00 	lds	r24, 0x00B6	; 0x8000b6 <LED3+0x4>
 4b6:	80 95       	com	r24
 4b8:	90 81       	ld	r25, Z
 4ba:	89 23       	and	r24, r25
	if (Level)	{
		Level = 0b11111111;
	}
	byteBuferPort |= (port_and_number.pinNumber & Level);
	*port_and_number.PORT = byteBuferPort;
 4bc:	80 83       	st	Z, r24
 4be:	d6 01       	movw	r26, r12
 4c0:	12 96       	adiw	r26, 0x02	; 2
 4c2:	ed 91       	ld	r30, X+
 4c4:	fc 91       	ld	r31, X
 4c6:	13 97       	sbiw	r26, 0x03	; 3
	*port_and_number.DDR = byteBuferPort;
}

void digitalWrite(struct_GPIO port_and_number, enumLevel Level)	{
	byte byteBuferPort = *port_and_number.PORT;
	byteBuferPort &= ~port_and_number.pinNumber;
 4c8:	14 96       	adiw	r26, 0x04	; 4
 4ca:	8c 91       	ld	r24, X
 4cc:	80 95       	com	r24
 4ce:	90 81       	ld	r25, Z
 4d0:	89 23       	and	r24, r25
	if (Level)	{
		Level = 0b11111111;
	}
	byteBuferPort |= (port_and_number.pinNumber & Level);
	*port_and_number.PORT = byteBuferPort;
 4d2:	80 83       	st	Z, r24
 4d4:	e0 91 c3 00 	lds	r30, 0x00C3	; 0x8000c3 <LED5+0x2>
 4d8:	f0 91 c4 00 	lds	r31, 0x00C4	; 0x8000c4 <LED5+0x3>
	*port_and_number.DDR = byteBuferPort;
}

void digitalWrite(struct_GPIO port_and_number, enumLevel Level)	{
	byte byteBuferPort = *port_and_number.PORT;
	byteBuferPort &= ~port_and_number.pinNumber;
 4dc:	80 91 c5 00 	lds	r24, 0x00C5	; 0x8000c5 <LED5+0x4>
 4e0:	80 95       	com	r24
 4e2:	90 81       	ld	r25, Z
 4e4:	89 23       	and	r24, r25
	if (Level)	{
		Level = 0b11111111;
	}
	byteBuferPort |= (port_and_number.pinNumber & Level);
	*port_and_number.PORT = byteBuferPort;
 4e6:	80 83       	st	Z, r24
 4e8:	e0 91 aa 00 	lds	r30, 0x00AA	; 0x8000aa <LED6+0x2>
 4ec:	f0 91 ab 00 	lds	r31, 0x00AB	; 0x8000ab <LED6+0x3>
	*port_and_number.DDR = byteBuferPort;
}

void digitalWrite(struct_GPIO port_and_number, enumLevel Level)	{
	byte byteBuferPort = *port_and_number.PORT;
	byteBuferPort &= ~port_and_number.pinNumber;
 4f0:	80 91 ac 00 	lds	r24, 0x00AC	; 0x8000ac <LED6+0x4>
 4f4:	80 95       	com	r24
 4f6:	90 81       	ld	r25, Z
 4f8:	89 23       	and	r24, r25
	if (Level)	{
		Level = 0b11111111;
	}
	byteBuferPort |= (port_and_number.pinNumber & Level);
	*port_and_number.PORT = byteBuferPort;
 4fa:	80 83       	st	Z, r24
 4fc:	e0 91 b9 00 	lds	r30, 0x00B9	; 0x8000b9 <LED7+0x2>
 500:	f0 91 ba 00 	lds	r31, 0x00BA	; 0x8000ba <LED7+0x3>
	*port_and_number.DDR = byteBuferPort;
}

void digitalWrite(struct_GPIO port_and_number, enumLevel Level)	{
	byte byteBuferPort = *port_and_number.PORT;
	byteBuferPort &= ~port_and_number.pinNumber;
 504:	80 91 bb 00 	lds	r24, 0x00BB	; 0x8000bb <LED7+0x4>
 508:	80 95       	com	r24
 50a:	90 81       	ld	r25, Z
 50c:	89 23       	and	r24, r25
	if (Level)	{
		Level = 0b11111111;
	}
	byteBuferPort |= (port_and_number.pinNumber & Level);
	*port_and_number.PORT = byteBuferPort;
 50e:	80 83       	st	Z, r24
 510:	d2 01       	movw	r26, r4
 512:	12 96       	adiw	r26, 0x02	; 2
 514:	ed 91       	ld	r30, X+
 516:	fc 91       	ld	r31, X
 518:	13 97       	sbiw	r26, 0x03	; 3
	*port_and_number.DDR = byteBuferPort;
}

void digitalWrite(struct_GPIO port_and_number, enumLevel Level)	{
	byte byteBuferPort = *port_and_number.PORT;
	byteBuferPort &= ~port_and_number.pinNumber;
 51a:	14 96       	adiw	r26, 0x04	; 4
 51c:	8c 91       	ld	r24, X
 51e:	80 95       	com	r24
 520:	90 81       	ld	r25, Z
 522:	89 23       	and	r24, r25
	if (Level)	{
		Level = 0b11111111;
	}
	byteBuferPort |= (port_and_number.pinNumber & Level);
	*port_and_number.PORT = byteBuferPort;
 524:	80 83       	st	Z, r24
			digitalWrite(LED4, LOW);
			digitalWrite(LED5, LOW);
			digitalWrite(LED6, LOW);
			digitalWrite(LED7, LOW);
			digitalWrite(LED8, LOW);
			limit = 30;
 526:	ee e1       	ldi	r30, 0x1E	; 30
 528:	f0 e0       	ldi	r31, 0x00	; 0
 52a:	f0 93 9d 00 	sts	0x009D, r31	; 0x80009d <__data_end+0x1>
 52e:	e0 93 9c 00 	sts	0x009C, r30	; 0x80009c <__data_end>
		}
		
		if ( (float_ADC3>30)&(float_ADC3<=60) )	{
 532:	80 90 a4 00 	lds	r8, 0x00A4	; 0x8000a4 <float_ADC3>
 536:	90 90 a5 00 	lds	r9, 0x00A5	; 0x8000a5 <float_ADC3+0x1>
 53a:	a0 90 a6 00 	lds	r10, 0x00A6	; 0x8000a6 <float_ADC3+0x2>
 53e:	b0 90 a7 00 	lds	r11, 0x00A7	; 0x8000a7 <float_ADC3+0x3>
 542:	73 2c       	mov	r7, r3
 544:	20 e0       	ldi	r18, 0x00	; 0
 546:	30 e0       	ldi	r19, 0x00	; 0
 548:	40 ef       	ldi	r20, 0xF0	; 240
 54a:	51 e4       	ldi	r21, 0x41	; 65
 54c:	c5 01       	movw	r24, r10
 54e:	b4 01       	movw	r22, r8
 550:	c3 d4       	rcall	.+2438   	; 0xed8 <__gesf2>
 552:	18 16       	cp	r1, r24
 554:	0c f0       	brlt	.+2      	; 0x558 <__stack+0xf9>
 556:	71 2c       	mov	r7, r1
 558:	77 20       	and	r7, r7
 55a:	09 f4       	brne	.+2      	; 0x55e <__stack+0xff>
 55c:	6a c0       	rjmp	.+212    	; 0x632 <__stack+0x1d3>
 55e:	73 2c       	mov	r7, r3
 560:	20 e0       	ldi	r18, 0x00	; 0
 562:	30 e0       	ldi	r19, 0x00	; 0
 564:	40 e7       	ldi	r20, 0x70	; 112
 566:	52 e4       	ldi	r21, 0x42	; 66
 568:	c5 01       	movw	r24, r10
 56a:	b4 01       	movw	r22, r8
 56c:	ff d3       	rcall	.+2046   	; 0xd6c <__cmpsf2>
 56e:	18 16       	cp	r1, r24
 570:	0c f4       	brge	.+2      	; 0x574 <__stack+0x115>
 572:	71 2c       	mov	r7, r1
 574:	77 20       	and	r7, r7
 576:	09 f4       	brne	.+2      	; 0x57a <__stack+0x11b>
 578:	5c c0       	rjmp	.+184    	; 0x632 <__stack+0x1d3>
 57a:	d7 01       	movw	r26, r14
 57c:	12 96       	adiw	r26, 0x02	; 2
 57e:	ed 91       	ld	r30, X+
 580:	fc 91       	ld	r31, X
 582:	13 97       	sbiw	r26, 0x03	; 3
	*port_and_number.DDR = byteBuferPort;
}

void digitalWrite(struct_GPIO port_and_number, enumLevel Level)	{
	byte byteBuferPort = *port_and_number.PORT;
	byteBuferPort &= ~port_and_number.pinNumber;
 584:	14 96       	adiw	r26, 0x04	; 4
 586:	8c 91       	ld	r24, X
 588:	80 95       	com	r24
 58a:	90 81       	ld	r25, Z
 58c:	89 23       	and	r24, r25
	if (Level)	{
		Level = 0b11111111;
	}
	byteBuferPort |= (port_and_number.pinNumber & Level);
	*port_and_number.PORT = byteBuferPort;
 58e:	80 83       	st	Z, r24
 590:	d8 01       	movw	r26, r16
 592:	12 96       	adiw	r26, 0x02	; 2
 594:	ed 91       	ld	r30, X+
 596:	fc 91       	ld	r31, X
 598:	13 97       	sbiw	r26, 0x03	; 3
 59a:	14 96       	adiw	r26, 0x04	; 4
 59c:	8c 91       	ld	r24, X
	*port_and_number.DDR = byteBuferPort;
}

void digitalWrite(struct_GPIO port_and_number, enumLevel Level)	{
	byte byteBuferPort = *port_and_number.PORT;
	byteBuferPort &= ~port_and_number.pinNumber;
 59e:	28 2f       	mov	r18, r24
 5a0:	20 95       	com	r18
 5a2:	90 81       	ld	r25, Z
 5a4:	92 23       	and	r25, r18
	if (Level)	{
		Level = 0b11111111;
	}
	byteBuferPort |= (port_and_number.pinNumber & Level);
	*port_and_number.PORT = byteBuferPort;
 5a6:	89 2b       	or	r24, r25
 5a8:	80 83       	st	Z, r24
 5aa:	e0 91 b4 00 	lds	r30, 0x00B4	; 0x8000b4 <LED3+0x2>
 5ae:	f0 91 b5 00 	lds	r31, 0x00B5	; 0x8000b5 <LED3+0x3>
	*port_and_number.DDR = byteBuferPort;
}

void digitalWrite(struct_GPIO port_and_number, enumLevel Level)	{
	byte byteBuferPort = *port_and_number.PORT;
	byteBuferPort &= ~port_and_number.pinNumber;
 5b2:	80 91 b6 00 	lds	r24, 0x00B6	; 0x8000b6 <LED3+0x4>
 5b6:	80 95       	com	r24
 5b8:	90 81       	ld	r25, Z
 5ba:	89 23       	and	r24, r25
	if (Level)	{
		Level = 0b11111111;
	}
	byteBuferPort |= (port_and_number.pinNumber & Level);
	*port_and_number.PORT = byteBuferPort;
 5bc:	80 83       	st	Z, r24
 5be:	d6 01       	movw	r26, r12
 5c0:	12 96       	adiw	r26, 0x02	; 2
 5c2:	ed 91       	ld	r30, X+
 5c4:	fc 91       	ld	r31, X
 5c6:	13 97       	sbiw	r26, 0x03	; 3
	*port_and_number.DDR = byteBuferPort;
}

void digitalWrite(struct_GPIO port_and_number, enumLevel Level)	{
	byte byteBuferPort = *port_and_number.PORT;
	byteBuferPort &= ~port_and_number.pinNumber;
 5c8:	14 96       	adiw	r26, 0x04	; 4
 5ca:	8c 91       	ld	r24, X
 5cc:	80 95       	com	r24
 5ce:	90 81       	ld	r25, Z
 5d0:	89 23       	and	r24, r25
	if (Level)	{
		Level = 0b11111111;
	}
	byteBuferPort |= (port_and_number.pinNumber & Level);
	*port_and_number.PORT = byteBuferPort;
 5d2:	80 83       	st	Z, r24
 5d4:	e0 91 c3 00 	lds	r30, 0x00C3	; 0x8000c3 <LED5+0x2>
 5d8:	f0 91 c4 00 	lds	r31, 0x00C4	; 0x8000c4 <LED5+0x3>
	*port_and_number.DDR = byteBuferPort;
}

void digitalWrite(struct_GPIO port_and_number, enumLevel Level)	{
	byte byteBuferPort = *port_and_number.PORT;
	byteBuferPort &= ~port_and_number.pinNumber;
 5dc:	80 91 c5 00 	lds	r24, 0x00C5	; 0x8000c5 <LED5+0x4>
 5e0:	80 95       	com	r24
 5e2:	90 81       	ld	r25, Z
 5e4:	89 23       	and	r24, r25
	if (Level)	{
		Level = 0b11111111;
	}
	byteBuferPort |= (port_and_number.pinNumber & Level);
	*port_and_number.PORT = byteBuferPort;
 5e6:	80 83       	st	Z, r24
 5e8:	e0 91 aa 00 	lds	r30, 0x00AA	; 0x8000aa <LED6+0x2>
 5ec:	f0 91 ab 00 	lds	r31, 0x00AB	; 0x8000ab <LED6+0x3>
	*port_and_number.DDR = byteBuferPort;
}

void digitalWrite(struct_GPIO port_and_number, enumLevel Level)	{
	byte byteBuferPort = *port_and_number.PORT;
	byteBuferPort &= ~port_and_number.pinNumber;
 5f0:	80 91 ac 00 	lds	r24, 0x00AC	; 0x8000ac <LED6+0x4>
 5f4:	80 95       	com	r24
 5f6:	90 81       	ld	r25, Z
 5f8:	89 23       	and	r24, r25
	if (Level)	{
		Level = 0b11111111;
	}
	byteBuferPort |= (port_and_number.pinNumber & Level);
	*port_and_number.PORT = byteBuferPort;
 5fa:	80 83       	st	Z, r24
 5fc:	e0 91 b9 00 	lds	r30, 0x00B9	; 0x8000b9 <LED7+0x2>
 600:	f0 91 ba 00 	lds	r31, 0x00BA	; 0x8000ba <LED7+0x3>
	*port_and_number.DDR = byteBuferPort;
}

void digitalWrite(struct_GPIO port_and_number, enumLevel Level)	{
	byte byteBuferPort = *port_and_number.PORT;
	byteBuferPort &= ~port_and_number.pinNumber;
 604:	80 91 bb 00 	lds	r24, 0x00BB	; 0x8000bb <LED7+0x4>
 608:	80 95       	com	r24
 60a:	90 81       	ld	r25, Z
 60c:	89 23       	and	r24, r25
	if (Level)	{
		Level = 0b11111111;
	}
	byteBuferPort |= (port_and_number.pinNumber & Level);
	*port_and_number.PORT = byteBuferPort;
 60e:	80 83       	st	Z, r24
 610:	d2 01       	movw	r26, r4
 612:	12 96       	adiw	r26, 0x02	; 2
 614:	ed 91       	ld	r30, X+
 616:	fc 91       	ld	r31, X
 618:	13 97       	sbiw	r26, 0x03	; 3
	*port_and_number.DDR = byteBuferPort;
}

void digitalWrite(struct_GPIO port_and_number, enumLevel Level)	{
	byte byteBuferPort = *port_and_number.PORT;
	byteBuferPort &= ~port_and_number.pinNumber;
 61a:	14 96       	adiw	r26, 0x04	; 4
 61c:	8c 91       	ld	r24, X
 61e:	80 95       	com	r24
 620:	90 81       	ld	r25, Z
 622:	89 23       	and	r24, r25
	if (Level)	{
		Level = 0b11111111;
	}
	byteBuferPort |= (port_and_number.pinNumber & Level);
	*port_and_number.PORT = byteBuferPort;
 624:	80 83       	st	Z, r24
			digitalWrite(LED4, LOW);
			digitalWrite(LED5, LOW);
			digitalWrite(LED6, LOW);
			digitalWrite(LED7, LOW);
			digitalWrite(LED8, LOW);
			limit = 60;
 626:	ec e3       	ldi	r30, 0x3C	; 60
 628:	f0 e0       	ldi	r31, 0x00	; 0
 62a:	f0 93 9d 00 	sts	0x009D, r31	; 0x80009d <__data_end+0x1>
 62e:	e0 93 9c 00 	sts	0x009C, r30	; 0x80009c <__data_end>
		}
		
		if ( (float_ADC3>60)&(float_ADC3<=90) )	{
 632:	80 90 a4 00 	lds	r8, 0x00A4	; 0x8000a4 <float_ADC3>
 636:	90 90 a5 00 	lds	r9, 0x00A5	; 0x8000a5 <float_ADC3+0x1>
 63a:	a0 90 a6 00 	lds	r10, 0x00A6	; 0x8000a6 <float_ADC3+0x2>
 63e:	b0 90 a7 00 	lds	r11, 0x00A7	; 0x8000a7 <float_ADC3+0x3>
 642:	73 2c       	mov	r7, r3
 644:	20 e0       	ldi	r18, 0x00	; 0
 646:	30 e0       	ldi	r19, 0x00	; 0
 648:	40 e7       	ldi	r20, 0x70	; 112
 64a:	52 e4       	ldi	r21, 0x42	; 66
 64c:	c5 01       	movw	r24, r10
 64e:	b4 01       	movw	r22, r8
 650:	43 d4       	rcall	.+2182   	; 0xed8 <__gesf2>
 652:	18 16       	cp	r1, r24
 654:	0c f0       	brlt	.+2      	; 0x658 <__stack+0x1f9>
 656:	71 2c       	mov	r7, r1
 658:	77 20       	and	r7, r7
 65a:	09 f4       	brne	.+2      	; 0x65e <__stack+0x1ff>
 65c:	6a c0       	rjmp	.+212    	; 0x732 <__stack+0x2d3>
 65e:	73 2c       	mov	r7, r3
 660:	20 e0       	ldi	r18, 0x00	; 0
 662:	30 e0       	ldi	r19, 0x00	; 0
 664:	44 eb       	ldi	r20, 0xB4	; 180
 666:	52 e4       	ldi	r21, 0x42	; 66
 668:	c5 01       	movw	r24, r10
 66a:	b4 01       	movw	r22, r8
 66c:	7f d3       	rcall	.+1790   	; 0xd6c <__cmpsf2>
 66e:	18 16       	cp	r1, r24
 670:	0c f4       	brge	.+2      	; 0x674 <__stack+0x215>
 672:	71 2c       	mov	r7, r1
 674:	77 20       	and	r7, r7
 676:	09 f4       	brne	.+2      	; 0x67a <__stack+0x21b>
 678:	5c c0       	rjmp	.+184    	; 0x732 <__stack+0x2d3>
 67a:	d7 01       	movw	r26, r14
 67c:	12 96       	adiw	r26, 0x02	; 2
 67e:	ed 91       	ld	r30, X+
 680:	fc 91       	ld	r31, X
 682:	13 97       	sbiw	r26, 0x03	; 3
	*port_and_number.DDR = byteBuferPort;
}

void digitalWrite(struct_GPIO port_and_number, enumLevel Level)	{
	byte byteBuferPort = *port_and_number.PORT;
	byteBuferPort &= ~port_and_number.pinNumber;
 684:	14 96       	adiw	r26, 0x04	; 4
 686:	8c 91       	ld	r24, X
 688:	80 95       	com	r24
 68a:	90 81       	ld	r25, Z
 68c:	89 23       	and	r24, r25
	if (Level)	{
		Level = 0b11111111;
	}
	byteBuferPort |= (port_and_number.pinNumber & Level);
	*port_and_number.PORT = byteBuferPort;
 68e:	80 83       	st	Z, r24
 690:	d8 01       	movw	r26, r16
 692:	12 96       	adiw	r26, 0x02	; 2
 694:	ed 91       	ld	r30, X+
 696:	fc 91       	ld	r31, X
 698:	13 97       	sbiw	r26, 0x03	; 3
	*port_and_number.DDR = byteBuferPort;
}

void digitalWrite(struct_GPIO port_and_number, enumLevel Level)	{
	byte byteBuferPort = *port_and_number.PORT;
	byteBuferPort &= ~port_and_number.pinNumber;
 69a:	14 96       	adiw	r26, 0x04	; 4
 69c:	8c 91       	ld	r24, X
 69e:	80 95       	com	r24
 6a0:	90 81       	ld	r25, Z
 6a2:	89 23       	and	r24, r25
	if (Level)	{
		Level = 0b11111111;
	}
	byteBuferPort |= (port_and_number.pinNumber & Level);
	*port_and_number.PORT = byteBuferPort;
 6a4:	80 83       	st	Z, r24
 6a6:	e0 91 b4 00 	lds	r30, 0x00B4	; 0x8000b4 <LED3+0x2>
 6aa:	f0 91 b5 00 	lds	r31, 0x00B5	; 0x8000b5 <LED3+0x3>
 6ae:	80 91 b6 00 	lds	r24, 0x00B6	; 0x8000b6 <LED3+0x4>
	*port_and_number.DDR = byteBuferPort;
}

void digitalWrite(struct_GPIO port_and_number, enumLevel Level)	{
	byte byteBuferPort = *port_and_number.PORT;
	byteBuferPort &= ~port_and_number.pinNumber;
 6b2:	28 2f       	mov	r18, r24
 6b4:	20 95       	com	r18
 6b6:	90 81       	ld	r25, Z
 6b8:	92 23       	and	r25, r18
	if (Level)	{
		Level = 0b11111111;
	}
	byteBuferPort |= (port_and_number.pinNumber & Level);
	*port_and_number.PORT = byteBuferPort;
 6ba:	89 2b       	or	r24, r25
 6bc:	80 83       	st	Z, r24
 6be:	d6 01       	movw	r26, r12
 6c0:	12 96       	adiw	r26, 0x02	; 2
 6c2:	ed 91       	ld	r30, X+
 6c4:	fc 91       	ld	r31, X
 6c6:	13 97       	sbiw	r26, 0x03	; 3
	*port_and_number.DDR = byteBuferPort;
}

void digitalWrite(struct_GPIO port_and_number, enumLevel Level)	{
	byte byteBuferPort = *port_and_number.PORT;
	byteBuferPort &= ~port_and_number.pinNumber;
 6c8:	14 96       	adiw	r26, 0x04	; 4
 6ca:	8c 91       	ld	r24, X
 6cc:	80 95       	com	r24
 6ce:	90 81       	ld	r25, Z
 6d0:	89 23       	and	r24, r25
	if (Level)	{
		Level = 0b11111111;
	}
	byteBuferPort |= (port_and_number.pinNumber & Level);
	*port_and_number.PORT = byteBuferPort;
 6d2:	80 83       	st	Z, r24
 6d4:	e0 91 c3 00 	lds	r30, 0x00C3	; 0x8000c3 <LED5+0x2>
 6d8:	f0 91 c4 00 	lds	r31, 0x00C4	; 0x8000c4 <LED5+0x3>
	*port_and_number.DDR = byteBuferPort;
}

void digitalWrite(struct_GPIO port_and_number, enumLevel Level)	{
	byte byteBuferPort = *port_and_number.PORT;
	byteBuferPort &= ~port_and_number.pinNumber;
 6dc:	80 91 c5 00 	lds	r24, 0x00C5	; 0x8000c5 <LED5+0x4>
 6e0:	80 95       	com	r24
 6e2:	90 81       	ld	r25, Z
 6e4:	89 23       	and	r24, r25
	if (Level)	{
		Level = 0b11111111;
	}
	byteBuferPort |= (port_and_number.pinNumber & Level);
	*port_and_number.PORT = byteBuferPort;
 6e6:	80 83       	st	Z, r24
 6e8:	e0 91 aa 00 	lds	r30, 0x00AA	; 0x8000aa <LED6+0x2>
 6ec:	f0 91 ab 00 	lds	r31, 0x00AB	; 0x8000ab <LED6+0x3>
	*port_and_number.DDR = byteBuferPort;
}

void digitalWrite(struct_GPIO port_and_number, enumLevel Level)	{
	byte byteBuferPort = *port_and_number.PORT;
	byteBuferPort &= ~port_and_number.pinNumber;
 6f0:	80 91 ac 00 	lds	r24, 0x00AC	; 0x8000ac <LED6+0x4>
 6f4:	80 95       	com	r24
 6f6:	90 81       	ld	r25, Z
 6f8:	89 23       	and	r24, r25
	if (Level)	{
		Level = 0b11111111;
	}
	byteBuferPort |= (port_and_number.pinNumber & Level);
	*port_and_number.PORT = byteBuferPort;
 6fa:	80 83       	st	Z, r24
 6fc:	e0 91 b9 00 	lds	r30, 0x00B9	; 0x8000b9 <LED7+0x2>
 700:	f0 91 ba 00 	lds	r31, 0x00BA	; 0x8000ba <LED7+0x3>
	*port_and_number.DDR = byteBuferPort;
}

void digitalWrite(struct_GPIO port_and_number, enumLevel Level)	{
	byte byteBuferPort = *port_and_number.PORT;
	byteBuferPort &= ~port_and_number.pinNumber;
 704:	80 91 bb 00 	lds	r24, 0x00BB	; 0x8000bb <LED7+0x4>
 708:	80 95       	com	r24
 70a:	90 81       	ld	r25, Z
 70c:	89 23       	and	r24, r25
	if (Level)	{
		Level = 0b11111111;
	}
	byteBuferPort |= (port_and_number.pinNumber & Level);
	*port_and_number.PORT = byteBuferPort;
 70e:	80 83       	st	Z, r24
 710:	d2 01       	movw	r26, r4
 712:	12 96       	adiw	r26, 0x02	; 2
 714:	ed 91       	ld	r30, X+
 716:	fc 91       	ld	r31, X
 718:	13 97       	sbiw	r26, 0x03	; 3
	*port_and_number.DDR = byteBuferPort;
}

void digitalWrite(struct_GPIO port_and_number, enumLevel Level)	{
	byte byteBuferPort = *port_and_number.PORT;
	byteBuferPort &= ~port_and_number.pinNumber;
 71a:	14 96       	adiw	r26, 0x04	; 4
 71c:	8c 91       	ld	r24, X
 71e:	80 95       	com	r24
 720:	90 81       	ld	r25, Z
 722:	89 23       	and	r24, r25
	if (Level)	{
		Level = 0b11111111;
	}
	byteBuferPort |= (port_and_number.pinNumber & Level);
	*port_and_number.PORT = byteBuferPort;
 724:	80 83       	st	Z, r24
			digitalWrite(LED4, LOW);
			digitalWrite(LED5, LOW);
			digitalWrite(LED6, LOW);
			digitalWrite(LED7, LOW);
			digitalWrite(LED8, LOW);
			limit = 90;
 726:	ea e5       	ldi	r30, 0x5A	; 90
 728:	f0 e0       	ldi	r31, 0x00	; 0
 72a:	f0 93 9d 00 	sts	0x009D, r31	; 0x80009d <__data_end+0x1>
 72e:	e0 93 9c 00 	sts	0x009C, r30	; 0x80009c <__data_end>
		}
		
		if ( (float_ADC3>90)&(float_ADC3<=120) )	{
 732:	80 90 a4 00 	lds	r8, 0x00A4	; 0x8000a4 <float_ADC3>
 736:	90 90 a5 00 	lds	r9, 0x00A5	; 0x8000a5 <float_ADC3+0x1>
 73a:	a0 90 a6 00 	lds	r10, 0x00A6	; 0x8000a6 <float_ADC3+0x2>
 73e:	b0 90 a7 00 	lds	r11, 0x00A7	; 0x8000a7 <float_ADC3+0x3>
 742:	73 2c       	mov	r7, r3
 744:	20 e0       	ldi	r18, 0x00	; 0
 746:	30 e0       	ldi	r19, 0x00	; 0
 748:	44 eb       	ldi	r20, 0xB4	; 180
 74a:	52 e4       	ldi	r21, 0x42	; 66
 74c:	c5 01       	movw	r24, r10
 74e:	b4 01       	movw	r22, r8
 750:	c3 d3       	rcall	.+1926   	; 0xed8 <__gesf2>
 752:	18 16       	cp	r1, r24
 754:	0c f0       	brlt	.+2      	; 0x758 <__stack+0x2f9>
 756:	71 2c       	mov	r7, r1
 758:	77 20       	and	r7, r7
 75a:	09 f4       	brne	.+2      	; 0x75e <__stack+0x2ff>
 75c:	6a c0       	rjmp	.+212    	; 0x832 <__stack+0x3d3>
 75e:	73 2c       	mov	r7, r3
 760:	20 e0       	ldi	r18, 0x00	; 0
 762:	30 e0       	ldi	r19, 0x00	; 0
 764:	40 ef       	ldi	r20, 0xF0	; 240
 766:	52 e4       	ldi	r21, 0x42	; 66
 768:	c5 01       	movw	r24, r10
 76a:	b4 01       	movw	r22, r8
 76c:	ff d2       	rcall	.+1534   	; 0xd6c <__cmpsf2>
 76e:	18 16       	cp	r1, r24
 770:	0c f4       	brge	.+2      	; 0x774 <__stack+0x315>
 772:	71 2c       	mov	r7, r1
 774:	77 20       	and	r7, r7
 776:	09 f4       	brne	.+2      	; 0x77a <__stack+0x31b>
 778:	5c c0       	rjmp	.+184    	; 0x832 <__stack+0x3d3>
 77a:	d7 01       	movw	r26, r14
 77c:	12 96       	adiw	r26, 0x02	; 2
 77e:	ed 91       	ld	r30, X+
 780:	fc 91       	ld	r31, X
 782:	13 97       	sbiw	r26, 0x03	; 3
	*port_and_number.DDR = byteBuferPort;
}

void digitalWrite(struct_GPIO port_and_number, enumLevel Level)	{
	byte byteBuferPort = *port_and_number.PORT;
	byteBuferPort &= ~port_and_number.pinNumber;
 784:	14 96       	adiw	r26, 0x04	; 4
 786:	8c 91       	ld	r24, X
 788:	80 95       	com	r24
 78a:	90 81       	ld	r25, Z
 78c:	89 23       	and	r24, r25
	if (Level)	{
		Level = 0b11111111;
	}
	byteBuferPort |= (port_and_number.pinNumber & Level);
	*port_and_number.PORT = byteBuferPort;
 78e:	80 83       	st	Z, r24
 790:	d8 01       	movw	r26, r16
 792:	12 96       	adiw	r26, 0x02	; 2
 794:	ed 91       	ld	r30, X+
 796:	fc 91       	ld	r31, X
 798:	13 97       	sbiw	r26, 0x03	; 3
	*port_and_number.DDR = byteBuferPort;
}

void digitalWrite(struct_GPIO port_and_number, enumLevel Level)	{
	byte byteBuferPort = *port_and_number.PORT;
	byteBuferPort &= ~port_and_number.pinNumber;
 79a:	14 96       	adiw	r26, 0x04	; 4
 79c:	8c 91       	ld	r24, X
 79e:	80 95       	com	r24
 7a0:	90 81       	ld	r25, Z
 7a2:	89 23       	and	r24, r25
	if (Level)	{
		Level = 0b11111111;
	}
	byteBuferPort |= (port_and_number.pinNumber & Level);
	*port_and_number.PORT = byteBuferPort;
 7a4:	80 83       	st	Z, r24
 7a6:	e0 91 b4 00 	lds	r30, 0x00B4	; 0x8000b4 <LED3+0x2>
 7aa:	f0 91 b5 00 	lds	r31, 0x00B5	; 0x8000b5 <LED3+0x3>
	*port_and_number.DDR = byteBuferPort;
}

void digitalWrite(struct_GPIO port_and_number, enumLevel Level)	{
	byte byteBuferPort = *port_and_number.PORT;
	byteBuferPort &= ~port_and_number.pinNumber;
 7ae:	80 91 b6 00 	lds	r24, 0x00B6	; 0x8000b6 <LED3+0x4>
 7b2:	80 95       	com	r24
 7b4:	90 81       	ld	r25, Z
 7b6:	89 23       	and	r24, r25
	if (Level)	{
		Level = 0b11111111;
	}
	byteBuferPort |= (port_and_number.pinNumber & Level);
	*port_and_number.PORT = byteBuferPort;
 7b8:	80 83       	st	Z, r24
 7ba:	d6 01       	movw	r26, r12
 7bc:	12 96       	adiw	r26, 0x02	; 2
 7be:	ed 91       	ld	r30, X+
 7c0:	fc 91       	ld	r31, X
 7c2:	13 97       	sbiw	r26, 0x03	; 3
 7c4:	14 96       	adiw	r26, 0x04	; 4
 7c6:	8c 91       	ld	r24, X
	*port_and_number.DDR = byteBuferPort;
}

void digitalWrite(struct_GPIO port_and_number, enumLevel Level)	{
	byte byteBuferPort = *port_and_number.PORT;
	byteBuferPort &= ~port_and_number.pinNumber;
 7c8:	28 2f       	mov	r18, r24
 7ca:	20 95       	com	r18
 7cc:	90 81       	ld	r25, Z
 7ce:	92 23       	and	r25, r18
	if (Level)	{
		Level = 0b11111111;
	}
	byteBuferPort |= (port_and_number.pinNumber & Level);
	*port_and_number.PORT = byteBuferPort;
 7d0:	89 2b       	or	r24, r25
 7d2:	80 83       	st	Z, r24
 7d4:	e0 91 c3 00 	lds	r30, 0x00C3	; 0x8000c3 <LED5+0x2>
 7d8:	f0 91 c4 00 	lds	r31, 0x00C4	; 0x8000c4 <LED5+0x3>
	*port_and_number.DDR = byteBuferPort;
}

void digitalWrite(struct_GPIO port_and_number, enumLevel Level)	{
	byte byteBuferPort = *port_and_number.PORT;
	byteBuferPort &= ~port_and_number.pinNumber;
 7dc:	80 91 c5 00 	lds	r24, 0x00C5	; 0x8000c5 <LED5+0x4>
 7e0:	80 95       	com	r24
 7e2:	90 81       	ld	r25, Z
 7e4:	89 23       	and	r24, r25
	if (Level)	{
		Level = 0b11111111;
	}
	byteBuferPort |= (port_and_number.pinNumber & Level);
	*port_and_number.PORT = byteBuferPort;
 7e6:	80 83       	st	Z, r24
 7e8:	e0 91 aa 00 	lds	r30, 0x00AA	; 0x8000aa <LED6+0x2>
 7ec:	f0 91 ab 00 	lds	r31, 0x00AB	; 0x8000ab <LED6+0x3>
	*port_and_number.DDR = byteBuferPort;
}

void digitalWrite(struct_GPIO port_and_number, enumLevel Level)	{
	byte byteBuferPort = *port_and_number.PORT;
	byteBuferPort &= ~port_and_number.pinNumber;
 7f0:	80 91 ac 00 	lds	r24, 0x00AC	; 0x8000ac <LED6+0x4>
 7f4:	80 95       	com	r24
 7f6:	90 81       	ld	r25, Z
 7f8:	89 23       	and	r24, r25
	if (Level)	{
		Level = 0b11111111;
	}
	byteBuferPort |= (port_and_number.pinNumber & Level);
	*port_and_number.PORT = byteBuferPort;
 7fa:	80 83       	st	Z, r24
 7fc:	e0 91 b9 00 	lds	r30, 0x00B9	; 0x8000b9 <LED7+0x2>
 800:	f0 91 ba 00 	lds	r31, 0x00BA	; 0x8000ba <LED7+0x3>
	*port_and_number.DDR = byteBuferPort;
}

void digitalWrite(struct_GPIO port_and_number, enumLevel Level)	{
	byte byteBuferPort = *port_and_number.PORT;
	byteBuferPort &= ~port_and_number.pinNumber;
 804:	80 91 bb 00 	lds	r24, 0x00BB	; 0x8000bb <LED7+0x4>
 808:	80 95       	com	r24
 80a:	90 81       	ld	r25, Z
 80c:	89 23       	and	r24, r25
	if (Level)	{
		Level = 0b11111111;
	}
	byteBuferPort |= (port_and_number.pinNumber & Level);
	*port_and_number.PORT = byteBuferPort;
 80e:	80 83       	st	Z, r24
 810:	d2 01       	movw	r26, r4
 812:	12 96       	adiw	r26, 0x02	; 2
 814:	ed 91       	ld	r30, X+
 816:	fc 91       	ld	r31, X
 818:	13 97       	sbiw	r26, 0x03	; 3
	*port_and_number.DDR = byteBuferPort;
}

void digitalWrite(struct_GPIO port_and_number, enumLevel Level)	{
	byte byteBuferPort = *port_and_number.PORT;
	byteBuferPort &= ~port_and_number.pinNumber;
 81a:	14 96       	adiw	r26, 0x04	; 4
 81c:	8c 91       	ld	r24, X
 81e:	80 95       	com	r24
 820:	90 81       	ld	r25, Z
 822:	89 23       	and	r24, r25
	if (Level)	{
		Level = 0b11111111;
	}
	byteBuferPort |= (port_and_number.pinNumber & Level);
	*port_and_number.PORT = byteBuferPort;
 824:	80 83       	st	Z, r24
			digitalWrite(LED4, HIGH);
			digitalWrite(LED5, LOW);
			digitalWrite(LED6, LOW);
			digitalWrite(LED7, LOW);
			digitalWrite(LED8, LOW);
			limit = 120;
 826:	e8 e7       	ldi	r30, 0x78	; 120
 828:	f0 e0       	ldi	r31, 0x00	; 0
 82a:	f0 93 9d 00 	sts	0x009D, r31	; 0x80009d <__data_end+0x1>
 82e:	e0 93 9c 00 	sts	0x009C, r30	; 0x80009c <__data_end>
		}
		
		if ( (float_ADC3>120)&(float_ADC3<=150) )	{
 832:	80 90 a4 00 	lds	r8, 0x00A4	; 0x8000a4 <float_ADC3>
 836:	90 90 a5 00 	lds	r9, 0x00A5	; 0x8000a5 <float_ADC3+0x1>
 83a:	a0 90 a6 00 	lds	r10, 0x00A6	; 0x8000a6 <float_ADC3+0x2>
 83e:	b0 90 a7 00 	lds	r11, 0x00A7	; 0x8000a7 <float_ADC3+0x3>
 842:	73 2c       	mov	r7, r3
 844:	20 e0       	ldi	r18, 0x00	; 0
 846:	30 e0       	ldi	r19, 0x00	; 0
 848:	40 ef       	ldi	r20, 0xF0	; 240
 84a:	52 e4       	ldi	r21, 0x42	; 66
 84c:	c5 01       	movw	r24, r10
 84e:	b4 01       	movw	r22, r8
 850:	43 d3       	rcall	.+1670   	; 0xed8 <__gesf2>
 852:	18 16       	cp	r1, r24
 854:	0c f0       	brlt	.+2      	; 0x858 <__stack+0x3f9>
 856:	71 2c       	mov	r7, r1
 858:	77 20       	and	r7, r7
 85a:	09 f4       	brne	.+2      	; 0x85e <__stack+0x3ff>
 85c:	6a c0       	rjmp	.+212    	; 0x932 <__stack+0x4d3>
 85e:	73 2c       	mov	r7, r3
 860:	20 e0       	ldi	r18, 0x00	; 0
 862:	30 e0       	ldi	r19, 0x00	; 0
 864:	46 e1       	ldi	r20, 0x16	; 22
 866:	53 e4       	ldi	r21, 0x43	; 67
 868:	c5 01       	movw	r24, r10
 86a:	b4 01       	movw	r22, r8
 86c:	7f d2       	rcall	.+1278   	; 0xd6c <__cmpsf2>
 86e:	18 16       	cp	r1, r24
 870:	0c f4       	brge	.+2      	; 0x874 <__stack+0x415>
 872:	71 2c       	mov	r7, r1
 874:	77 20       	and	r7, r7
 876:	09 f4       	brne	.+2      	; 0x87a <__stack+0x41b>
 878:	5c c0       	rjmp	.+184    	; 0x932 <__stack+0x4d3>
 87a:	d7 01       	movw	r26, r14
 87c:	12 96       	adiw	r26, 0x02	; 2
 87e:	ed 91       	ld	r30, X+
 880:	fc 91       	ld	r31, X
 882:	13 97       	sbiw	r26, 0x03	; 3
	*port_and_number.DDR = byteBuferPort;
}

void digitalWrite(struct_GPIO port_and_number, enumLevel Level)	{
	byte byteBuferPort = *port_and_number.PORT;
	byteBuferPort &= ~port_and_number.pinNumber;
 884:	14 96       	adiw	r26, 0x04	; 4
 886:	8c 91       	ld	r24, X
 888:	80 95       	com	r24
 88a:	90 81       	ld	r25, Z
 88c:	89 23       	and	r24, r25
	if (Level)	{
		Level = 0b11111111;
	}
	byteBuferPort |= (port_and_number.pinNumber & Level);
	*port_and_number.PORT = byteBuferPort;
 88e:	80 83       	st	Z, r24
 890:	d8 01       	movw	r26, r16
 892:	12 96       	adiw	r26, 0x02	; 2
 894:	ed 91       	ld	r30, X+
 896:	fc 91       	ld	r31, X
 898:	13 97       	sbiw	r26, 0x03	; 3
	*port_and_number.DDR = byteBuferPort;
}

void digitalWrite(struct_GPIO port_and_number, enumLevel Level)	{
	byte byteBuferPort = *port_and_number.PORT;
	byteBuferPort &= ~port_and_number.pinNumber;
 89a:	14 96       	adiw	r26, 0x04	; 4
 89c:	8c 91       	ld	r24, X
 89e:	80 95       	com	r24
 8a0:	90 81       	ld	r25, Z
 8a2:	89 23       	and	r24, r25
	if (Level)	{
		Level = 0b11111111;
	}
	byteBuferPort |= (port_and_number.pinNumber & Level);
	*port_and_number.PORT = byteBuferPort;
 8a4:	80 83       	st	Z, r24
 8a6:	e0 91 b4 00 	lds	r30, 0x00B4	; 0x8000b4 <LED3+0x2>
 8aa:	f0 91 b5 00 	lds	r31, 0x00B5	; 0x8000b5 <LED3+0x3>
	*port_and_number.DDR = byteBuferPort;
}

void digitalWrite(struct_GPIO port_and_number, enumLevel Level)	{
	byte byteBuferPort = *port_and_number.PORT;
	byteBuferPort &= ~port_and_number.pinNumber;
 8ae:	80 91 b6 00 	lds	r24, 0x00B6	; 0x8000b6 <LED3+0x4>
 8b2:	80 95       	com	r24
 8b4:	90 81       	ld	r25, Z
 8b6:	89 23       	and	r24, r25
	if (Level)	{
		Level = 0b11111111;
	}
	byteBuferPort |= (port_and_number.pinNumber & Level);
	*port_and_number.PORT = byteBuferPort;
 8b8:	80 83       	st	Z, r24
 8ba:	d6 01       	movw	r26, r12
 8bc:	12 96       	adiw	r26, 0x02	; 2
 8be:	ed 91       	ld	r30, X+
 8c0:	fc 91       	ld	r31, X
 8c2:	13 97       	sbiw	r26, 0x03	; 3
	*port_and_number.DDR = byteBuferPort;
}

void digitalWrite(struct_GPIO port_and_number, enumLevel Level)	{
	byte byteBuferPort = *port_and_number.PORT;
	byteBuferPort &= ~port_and_number.pinNumber;
 8c4:	14 96       	adiw	r26, 0x04	; 4
 8c6:	8c 91       	ld	r24, X
 8c8:	80 95       	com	r24
 8ca:	90 81       	ld	r25, Z
 8cc:	89 23       	and	r24, r25
	if (Level)	{
		Level = 0b11111111;
	}
	byteBuferPort |= (port_and_number.pinNumber & Level);
	*port_and_number.PORT = byteBuferPort;
 8ce:	80 83       	st	Z, r24
 8d0:	e0 91 c3 00 	lds	r30, 0x00C3	; 0x8000c3 <LED5+0x2>
 8d4:	f0 91 c4 00 	lds	r31, 0x00C4	; 0x8000c4 <LED5+0x3>
 8d8:	80 91 c5 00 	lds	r24, 0x00C5	; 0x8000c5 <LED5+0x4>
	*port_and_number.DDR = byteBuferPort;
}

void digitalWrite(struct_GPIO port_and_number, enumLevel Level)	{
	byte byteBuferPort = *port_and_number.PORT;
	byteBuferPort &= ~port_and_number.pinNumber;
 8dc:	28 2f       	mov	r18, r24
 8de:	20 95       	com	r18
 8e0:	90 81       	ld	r25, Z
 8e2:	92 23       	and	r25, r18
	if (Level)	{
		Level = 0b11111111;
	}
	byteBuferPort |= (port_and_number.pinNumber & Level);
	*port_and_number.PORT = byteBuferPort;
 8e4:	89 2b       	or	r24, r25
 8e6:	80 83       	st	Z, r24
 8e8:	e0 91 aa 00 	lds	r30, 0x00AA	; 0x8000aa <LED6+0x2>
 8ec:	f0 91 ab 00 	lds	r31, 0x00AB	; 0x8000ab <LED6+0x3>
	*port_and_number.DDR = byteBuferPort;
}

void digitalWrite(struct_GPIO port_and_number, enumLevel Level)	{
	byte byteBuferPort = *port_and_number.PORT;
	byteBuferPort &= ~port_and_number.pinNumber;
 8f0:	80 91 ac 00 	lds	r24, 0x00AC	; 0x8000ac <LED6+0x4>
 8f4:	80 95       	com	r24
 8f6:	90 81       	ld	r25, Z
 8f8:	89 23       	and	r24, r25
	if (Level)	{
		Level = 0b11111111;
	}
	byteBuferPort |= (port_and_number.pinNumber & Level);
	*port_and_number.PORT = byteBuferPort;
 8fa:	80 83       	st	Z, r24
 8fc:	e0 91 b9 00 	lds	r30, 0x00B9	; 0x8000b9 <LED7+0x2>
 900:	f0 91 ba 00 	lds	r31, 0x00BA	; 0x8000ba <LED7+0x3>
	*port_and_number.DDR = byteBuferPort;
}

void digitalWrite(struct_GPIO port_and_number, enumLevel Level)	{
	byte byteBuferPort = *port_and_number.PORT;
	byteBuferPort &= ~port_and_number.pinNumber;
 904:	80 91 bb 00 	lds	r24, 0x00BB	; 0x8000bb <LED7+0x4>
 908:	80 95       	com	r24
 90a:	90 81       	ld	r25, Z
 90c:	89 23       	and	r24, r25
	if (Level)	{
		Level = 0b11111111;
	}
	byteBuferPort |= (port_and_number.pinNumber & Level);
	*port_and_number.PORT = byteBuferPort;
 90e:	80 83       	st	Z, r24
 910:	d2 01       	movw	r26, r4
 912:	12 96       	adiw	r26, 0x02	; 2
 914:	ed 91       	ld	r30, X+
 916:	fc 91       	ld	r31, X
 918:	13 97       	sbiw	r26, 0x03	; 3
	*port_and_number.DDR = byteBuferPort;
}

void digitalWrite(struct_GPIO port_and_number, enumLevel Level)	{
	byte byteBuferPort = *port_and_number.PORT;
	byteBuferPort &= ~port_and_number.pinNumber;
 91a:	14 96       	adiw	r26, 0x04	; 4
 91c:	8c 91       	ld	r24, X
 91e:	80 95       	com	r24
 920:	90 81       	ld	r25, Z
 922:	89 23       	and	r24, r25
	if (Level)	{
		Level = 0b11111111;
	}
	byteBuferPort |= (port_and_number.pinNumber & Level);
	*port_and_number.PORT = byteBuferPort;
 924:	80 83       	st	Z, r24
			digitalWrite(LED4, LOW);
			digitalWrite(LED5, HIGH);
			digitalWrite(LED6, LOW);
			digitalWrite(LED7, LOW);
			digitalWrite(LED8, LOW);
			limit = 150;
 926:	86 e9       	ldi	r24, 0x96	; 150
 928:	90 e0       	ldi	r25, 0x00	; 0
 92a:	90 93 9d 00 	sts	0x009D, r25	; 0x80009d <__data_end+0x1>
 92e:	80 93 9c 00 	sts	0x009C, r24	; 0x80009c <__data_end>
		}
		
		if ( (float_ADC3>150)&(float_ADC3<=180) )	{
 932:	80 90 a4 00 	lds	r8, 0x00A4	; 0x8000a4 <float_ADC3>
 936:	90 90 a5 00 	lds	r9, 0x00A5	; 0x8000a5 <float_ADC3+0x1>
 93a:	a0 90 a6 00 	lds	r10, 0x00A6	; 0x8000a6 <float_ADC3+0x2>
 93e:	b0 90 a7 00 	lds	r11, 0x00A7	; 0x8000a7 <float_ADC3+0x3>
 942:	73 2c       	mov	r7, r3
 944:	20 e0       	ldi	r18, 0x00	; 0
 946:	30 e0       	ldi	r19, 0x00	; 0
 948:	46 e1       	ldi	r20, 0x16	; 22
 94a:	53 e4       	ldi	r21, 0x43	; 67
 94c:	c5 01       	movw	r24, r10
 94e:	b4 01       	movw	r22, r8
 950:	c3 d2       	rcall	.+1414   	; 0xed8 <__gesf2>
 952:	18 16       	cp	r1, r24
 954:	0c f0       	brlt	.+2      	; 0x958 <__stack+0x4f9>
 956:	71 2c       	mov	r7, r1
 958:	77 20       	and	r7, r7
 95a:	09 f4       	brne	.+2      	; 0x95e <__stack+0x4ff>
 95c:	6a c0       	rjmp	.+212    	; 0xa32 <__stack+0x5d3>
 95e:	73 2c       	mov	r7, r3
 960:	20 e0       	ldi	r18, 0x00	; 0
 962:	30 e0       	ldi	r19, 0x00	; 0
 964:	44 e3       	ldi	r20, 0x34	; 52
 966:	53 e4       	ldi	r21, 0x43	; 67
 968:	c5 01       	movw	r24, r10
 96a:	b4 01       	movw	r22, r8
 96c:	ff d1       	rcall	.+1022   	; 0xd6c <__cmpsf2>
 96e:	18 16       	cp	r1, r24
 970:	0c f4       	brge	.+2      	; 0x974 <__stack+0x515>
 972:	71 2c       	mov	r7, r1
 974:	77 20       	and	r7, r7
 976:	09 f4       	brne	.+2      	; 0x97a <__stack+0x51b>
 978:	5c c0       	rjmp	.+184    	; 0xa32 <__stack+0x5d3>
 97a:	d7 01       	movw	r26, r14
 97c:	12 96       	adiw	r26, 0x02	; 2
 97e:	ed 91       	ld	r30, X+
 980:	fc 91       	ld	r31, X
 982:	13 97       	sbiw	r26, 0x03	; 3
	*port_and_number.DDR = byteBuferPort;
}

void digitalWrite(struct_GPIO port_and_number, enumLevel Level)	{
	byte byteBuferPort = *port_and_number.PORT;
	byteBuferPort &= ~port_and_number.pinNumber;
 984:	14 96       	adiw	r26, 0x04	; 4
 986:	8c 91       	ld	r24, X
 988:	80 95       	com	r24
 98a:	90 81       	ld	r25, Z
 98c:	89 23       	and	r24, r25
	if (Level)	{
		Level = 0b11111111;
	}
	byteBuferPort |= (port_and_number.pinNumber & Level);
	*port_and_number.PORT = byteBuferPort;
 98e:	80 83       	st	Z, r24
 990:	d8 01       	movw	r26, r16
 992:	12 96       	adiw	r26, 0x02	; 2
 994:	ed 91       	ld	r30, X+
 996:	fc 91       	ld	r31, X
 998:	13 97       	sbiw	r26, 0x03	; 3
	*port_and_number.DDR = byteBuferPort;
}

void digitalWrite(struct_GPIO port_and_number, enumLevel Level)	{
	byte byteBuferPort = *port_and_number.PORT;
	byteBuferPort &= ~port_and_number.pinNumber;
 99a:	14 96       	adiw	r26, 0x04	; 4
 99c:	8c 91       	ld	r24, X
 99e:	80 95       	com	r24
 9a0:	90 81       	ld	r25, Z
 9a2:	89 23       	and	r24, r25
	if (Level)	{
		Level = 0b11111111;
	}
	byteBuferPort |= (port_and_number.pinNumber & Level);
	*port_and_number.PORT = byteBuferPort;
 9a4:	80 83       	st	Z, r24
 9a6:	e0 91 b4 00 	lds	r30, 0x00B4	; 0x8000b4 <LED3+0x2>
 9aa:	f0 91 b5 00 	lds	r31, 0x00B5	; 0x8000b5 <LED3+0x3>
	*port_and_number.DDR = byteBuferPort;
}

void digitalWrite(struct_GPIO port_and_number, enumLevel Level)	{
	byte byteBuferPort = *port_and_number.PORT;
	byteBuferPort &= ~port_and_number.pinNumber;
 9ae:	80 91 b6 00 	lds	r24, 0x00B6	; 0x8000b6 <LED3+0x4>
 9b2:	80 95       	com	r24
 9b4:	90 81       	ld	r25, Z
 9b6:	89 23       	and	r24, r25
	if (Level)	{
		Level = 0b11111111;
	}
	byteBuferPort |= (port_and_number.pinNumber & Level);
	*port_and_number.PORT = byteBuferPort;
 9b8:	80 83       	st	Z, r24
 9ba:	d6 01       	movw	r26, r12
 9bc:	12 96       	adiw	r26, 0x02	; 2
 9be:	ed 91       	ld	r30, X+
 9c0:	fc 91       	ld	r31, X
 9c2:	13 97       	sbiw	r26, 0x03	; 3
	*port_and_number.DDR = byteBuferPort;
}

void digitalWrite(struct_GPIO port_and_number, enumLevel Level)	{
	byte byteBuferPort = *port_and_number.PORT;
	byteBuferPort &= ~port_and_number.pinNumber;
 9c4:	14 96       	adiw	r26, 0x04	; 4
 9c6:	8c 91       	ld	r24, X
 9c8:	80 95       	com	r24
 9ca:	90 81       	ld	r25, Z
 9cc:	89 23       	and	r24, r25
	if (Level)	{
		Level = 0b11111111;
	}
	byteBuferPort |= (port_and_number.pinNumber & Level);
	*port_and_number.PORT = byteBuferPort;
 9ce:	80 83       	st	Z, r24
 9d0:	e0 91 c3 00 	lds	r30, 0x00C3	; 0x8000c3 <LED5+0x2>
 9d4:	f0 91 c4 00 	lds	r31, 0x00C4	; 0x8000c4 <LED5+0x3>
	*port_and_number.DDR = byteBuferPort;
}

void digitalWrite(struct_GPIO port_and_number, enumLevel Level)	{
	byte byteBuferPort = *port_and_number.PORT;
	byteBuferPort &= ~port_and_number.pinNumber;
 9d8:	80 91 c5 00 	lds	r24, 0x00C5	; 0x8000c5 <LED5+0x4>
 9dc:	80 95       	com	r24
 9de:	90 81       	ld	r25, Z
 9e0:	89 23       	and	r24, r25
	if (Level)	{
		Level = 0b11111111;
	}
	byteBuferPort |= (port_and_number.pinNumber & Level);
	*port_and_number.PORT = byteBuferPort;
 9e2:	80 83       	st	Z, r24
 9e4:	e0 91 aa 00 	lds	r30, 0x00AA	; 0x8000aa <LED6+0x2>
 9e8:	f0 91 ab 00 	lds	r31, 0x00AB	; 0x8000ab <LED6+0x3>
 9ec:	80 91 ac 00 	lds	r24, 0x00AC	; 0x8000ac <LED6+0x4>
	*port_and_number.DDR = byteBuferPort;
}

void digitalWrite(struct_GPIO port_and_number, enumLevel Level)	{
	byte byteBuferPort = *port_and_number.PORT;
	byteBuferPort &= ~port_and_number.pinNumber;
 9f0:	28 2f       	mov	r18, r24
 9f2:	20 95       	com	r18
 9f4:	90 81       	ld	r25, Z
 9f6:	92 23       	and	r25, r18
	if (Level)	{
		Level = 0b11111111;
	}
	byteBuferPort |= (port_and_number.pinNumber & Level);
	*port_and_number.PORT = byteBuferPort;
 9f8:	89 2b       	or	r24, r25
 9fa:	80 83       	st	Z, r24
 9fc:	e0 91 b9 00 	lds	r30, 0x00B9	; 0x8000b9 <LED7+0x2>
 a00:	f0 91 ba 00 	lds	r31, 0x00BA	; 0x8000ba <LED7+0x3>
	*port_and_number.DDR = byteBuferPort;
}

void digitalWrite(struct_GPIO port_and_number, enumLevel Level)	{
	byte byteBuferPort = *port_and_number.PORT;
	byteBuferPort &= ~port_and_number.pinNumber;
 a04:	80 91 bb 00 	lds	r24, 0x00BB	; 0x8000bb <LED7+0x4>
 a08:	80 95       	com	r24
 a0a:	90 81       	ld	r25, Z
 a0c:	89 23       	and	r24, r25
	if (Level)	{
		Level = 0b11111111;
	}
	byteBuferPort |= (port_and_number.pinNumber & Level);
	*port_and_number.PORT = byteBuferPort;
 a0e:	80 83       	st	Z, r24
 a10:	d2 01       	movw	r26, r4
 a12:	12 96       	adiw	r26, 0x02	; 2
 a14:	ed 91       	ld	r30, X+
 a16:	fc 91       	ld	r31, X
 a18:	13 97       	sbiw	r26, 0x03	; 3
	*port_and_number.DDR = byteBuferPort;
}

void digitalWrite(struct_GPIO port_and_number, enumLevel Level)	{
	byte byteBuferPort = *port_and_number.PORT;
	byteBuferPort &= ~port_and_number.pinNumber;
 a1a:	14 96       	adiw	r26, 0x04	; 4
 a1c:	8c 91       	ld	r24, X
 a1e:	80 95       	com	r24
 a20:	90 81       	ld	r25, Z
 a22:	89 23       	and	r24, r25
	if (Level)	{
		Level = 0b11111111;
	}
	byteBuferPort |= (port_and_number.pinNumber & Level);
	*port_and_number.PORT = byteBuferPort;
 a24:	80 83       	st	Z, r24
			digitalWrite(LED4, LOW);
			digitalWrite(LED5, LOW);
			digitalWrite(LED6, HIGH);
			digitalWrite(LED7, LOW);
			digitalWrite(LED8, LOW);
			limit = 180;
 a26:	84 eb       	ldi	r24, 0xB4	; 180
 a28:	90 e0       	ldi	r25, 0x00	; 0
 a2a:	90 93 9d 00 	sts	0x009D, r25	; 0x80009d <__data_end+0x1>
 a2e:	80 93 9c 00 	sts	0x009C, r24	; 0x80009c <__data_end>
		}
		
		if ( (float_ADC3>180)&(float_ADC3<=210) )	{
 a32:	80 90 a4 00 	lds	r8, 0x00A4	; 0x8000a4 <float_ADC3>
 a36:	90 90 a5 00 	lds	r9, 0x00A5	; 0x8000a5 <float_ADC3+0x1>
 a3a:	a0 90 a6 00 	lds	r10, 0x00A6	; 0x8000a6 <float_ADC3+0x2>
 a3e:	b0 90 a7 00 	lds	r11, 0x00A7	; 0x8000a7 <float_ADC3+0x3>
 a42:	73 2c       	mov	r7, r3
 a44:	20 e0       	ldi	r18, 0x00	; 0
 a46:	30 e0       	ldi	r19, 0x00	; 0
 a48:	44 e3       	ldi	r20, 0x34	; 52
 a4a:	53 e4       	ldi	r21, 0x43	; 67
 a4c:	c5 01       	movw	r24, r10
 a4e:	b4 01       	movw	r22, r8
 a50:	43 d2       	rcall	.+1158   	; 0xed8 <__gesf2>
 a52:	18 16       	cp	r1, r24
 a54:	0c f0       	brlt	.+2      	; 0xa58 <__stack+0x5f9>
 a56:	71 2c       	mov	r7, r1
 a58:	77 20       	and	r7, r7
 a5a:	09 f4       	brne	.+2      	; 0xa5e <__stack+0x5ff>
 a5c:	6a c0       	rjmp	.+212    	; 0xb32 <__stack+0x6d3>
 a5e:	73 2c       	mov	r7, r3
 a60:	20 e0       	ldi	r18, 0x00	; 0
 a62:	30 e0       	ldi	r19, 0x00	; 0
 a64:	42 e5       	ldi	r20, 0x52	; 82
 a66:	53 e4       	ldi	r21, 0x43	; 67
 a68:	c5 01       	movw	r24, r10
 a6a:	b4 01       	movw	r22, r8
 a6c:	7f d1       	rcall	.+766    	; 0xd6c <__cmpsf2>
 a6e:	18 16       	cp	r1, r24
 a70:	0c f4       	brge	.+2      	; 0xa74 <__stack+0x615>
 a72:	71 2c       	mov	r7, r1
 a74:	77 20       	and	r7, r7
 a76:	09 f4       	brne	.+2      	; 0xa7a <__stack+0x61b>
 a78:	5c c0       	rjmp	.+184    	; 0xb32 <__stack+0x6d3>
 a7a:	d7 01       	movw	r26, r14
 a7c:	12 96       	adiw	r26, 0x02	; 2
 a7e:	ed 91       	ld	r30, X+
 a80:	fc 91       	ld	r31, X
 a82:	13 97       	sbiw	r26, 0x03	; 3
	*port_and_number.DDR = byteBuferPort;
}

void digitalWrite(struct_GPIO port_and_number, enumLevel Level)	{
	byte byteBuferPort = *port_and_number.PORT;
	byteBuferPort &= ~port_and_number.pinNumber;
 a84:	14 96       	adiw	r26, 0x04	; 4
 a86:	8c 91       	ld	r24, X
 a88:	80 95       	com	r24
 a8a:	90 81       	ld	r25, Z
 a8c:	89 23       	and	r24, r25
	if (Level)	{
		Level = 0b11111111;
	}
	byteBuferPort |= (port_and_number.pinNumber & Level);
	*port_and_number.PORT = byteBuferPort;
 a8e:	80 83       	st	Z, r24
 a90:	d8 01       	movw	r26, r16
 a92:	12 96       	adiw	r26, 0x02	; 2
 a94:	ed 91       	ld	r30, X+
 a96:	fc 91       	ld	r31, X
 a98:	13 97       	sbiw	r26, 0x03	; 3
	*port_and_number.DDR = byteBuferPort;
}

void digitalWrite(struct_GPIO port_and_number, enumLevel Level)	{
	byte byteBuferPort = *port_and_number.PORT;
	byteBuferPort &= ~port_and_number.pinNumber;
 a9a:	14 96       	adiw	r26, 0x04	; 4
 a9c:	8c 91       	ld	r24, X
 a9e:	80 95       	com	r24
 aa0:	90 81       	ld	r25, Z
 aa2:	89 23       	and	r24, r25
	if (Level)	{
		Level = 0b11111111;
	}
	byteBuferPort |= (port_and_number.pinNumber & Level);
	*port_and_number.PORT = byteBuferPort;
 aa4:	80 83       	st	Z, r24
 aa6:	e0 91 b4 00 	lds	r30, 0x00B4	; 0x8000b4 <LED3+0x2>
 aaa:	f0 91 b5 00 	lds	r31, 0x00B5	; 0x8000b5 <LED3+0x3>
	*port_and_number.DDR = byteBuferPort;
}

void digitalWrite(struct_GPIO port_and_number, enumLevel Level)	{
	byte byteBuferPort = *port_and_number.PORT;
	byteBuferPort &= ~port_and_number.pinNumber;
 aae:	80 91 b6 00 	lds	r24, 0x00B6	; 0x8000b6 <LED3+0x4>
 ab2:	80 95       	com	r24
 ab4:	90 81       	ld	r25, Z
 ab6:	89 23       	and	r24, r25
	if (Level)	{
		Level = 0b11111111;
	}
	byteBuferPort |= (port_and_number.pinNumber & Level);
	*port_and_number.PORT = byteBuferPort;
 ab8:	80 83       	st	Z, r24
 aba:	d6 01       	movw	r26, r12
 abc:	12 96       	adiw	r26, 0x02	; 2
 abe:	ed 91       	ld	r30, X+
 ac0:	fc 91       	ld	r31, X
 ac2:	13 97       	sbiw	r26, 0x03	; 3
	*port_and_number.DDR = byteBuferPort;
}

void digitalWrite(struct_GPIO port_and_number, enumLevel Level)	{
	byte byteBuferPort = *port_and_number.PORT;
	byteBuferPort &= ~port_and_number.pinNumber;
 ac4:	14 96       	adiw	r26, 0x04	; 4
 ac6:	8c 91       	ld	r24, X
 ac8:	80 95       	com	r24
 aca:	90 81       	ld	r25, Z
 acc:	89 23       	and	r24, r25
	if (Level)	{
		Level = 0b11111111;
	}
	byteBuferPort |= (port_and_number.pinNumber & Level);
	*port_and_number.PORT = byteBuferPort;
 ace:	80 83       	st	Z, r24
 ad0:	e0 91 c3 00 	lds	r30, 0x00C3	; 0x8000c3 <LED5+0x2>
 ad4:	f0 91 c4 00 	lds	r31, 0x00C4	; 0x8000c4 <LED5+0x3>
	*port_and_number.DDR = byteBuferPort;
}

void digitalWrite(struct_GPIO port_and_number, enumLevel Level)	{
	byte byteBuferPort = *port_and_number.PORT;
	byteBuferPort &= ~port_and_number.pinNumber;
 ad8:	80 91 c5 00 	lds	r24, 0x00C5	; 0x8000c5 <LED5+0x4>
 adc:	80 95       	com	r24
 ade:	90 81       	ld	r25, Z
 ae0:	89 23       	and	r24, r25
	if (Level)	{
		Level = 0b11111111;
	}
	byteBuferPort |= (port_and_number.pinNumber & Level);
	*port_and_number.PORT = byteBuferPort;
 ae2:	80 83       	st	Z, r24
 ae4:	e0 91 aa 00 	lds	r30, 0x00AA	; 0x8000aa <LED6+0x2>
 ae8:	f0 91 ab 00 	lds	r31, 0x00AB	; 0x8000ab <LED6+0x3>
	*port_and_number.DDR = byteBuferPort;
}

void digitalWrite(struct_GPIO port_and_number, enumLevel Level)	{
	byte byteBuferPort = *port_and_number.PORT;
	byteBuferPort &= ~port_and_number.pinNumber;
 aec:	80 91 ac 00 	lds	r24, 0x00AC	; 0x8000ac <LED6+0x4>
 af0:	80 95       	com	r24
 af2:	90 81       	ld	r25, Z
 af4:	89 23       	and	r24, r25
	if (Level)	{
		Level = 0b11111111;
	}
	byteBuferPort |= (port_and_number.pinNumber & Level);
	*port_and_number.PORT = byteBuferPort;
 af6:	80 83       	st	Z, r24
 af8:	e0 91 b9 00 	lds	r30, 0x00B9	; 0x8000b9 <LED7+0x2>
 afc:	f0 91 ba 00 	lds	r31, 0x00BA	; 0x8000ba <LED7+0x3>
 b00:	80 91 bb 00 	lds	r24, 0x00BB	; 0x8000bb <LED7+0x4>
	*port_and_number.DDR = byteBuferPort;
}

void digitalWrite(struct_GPIO port_and_number, enumLevel Level)	{
	byte byteBuferPort = *port_and_number.PORT;
	byteBuferPort &= ~port_and_number.pinNumber;
 b04:	28 2f       	mov	r18, r24
 b06:	20 95       	com	r18
 b08:	90 81       	ld	r25, Z
 b0a:	92 23       	and	r25, r18
	if (Level)	{
		Level = 0b11111111;
	}
	byteBuferPort |= (port_and_number.pinNumber & Level);
	*port_and_number.PORT = byteBuferPort;
 b0c:	89 2b       	or	r24, r25
 b0e:	80 83       	st	Z, r24
 b10:	d2 01       	movw	r26, r4
 b12:	12 96       	adiw	r26, 0x02	; 2
 b14:	ed 91       	ld	r30, X+
 b16:	fc 91       	ld	r31, X
 b18:	13 97       	sbiw	r26, 0x03	; 3
	*port_and_number.DDR = byteBuferPort;
}

void digitalWrite(struct_GPIO port_and_number, enumLevel Level)	{
	byte byteBuferPort = *port_and_number.PORT;
	byteBuferPort &= ~port_and_number.pinNumber;
 b1a:	14 96       	adiw	r26, 0x04	; 4
 b1c:	8c 91       	ld	r24, X
 b1e:	80 95       	com	r24
 b20:	90 81       	ld	r25, Z
 b22:	89 23       	and	r24, r25
	if (Level)	{
		Level = 0b11111111;
	}
	byteBuferPort |= (port_and_number.pinNumber & Level);
	*port_and_number.PORT = byteBuferPort;
 b24:	80 83       	st	Z, r24
			digitalWrite(LED4, LOW);
			digitalWrite(LED5, LOW);
			digitalWrite(LED6, LOW);
			digitalWrite(LED7, HIGH);
			digitalWrite(LED8, LOW);
			limit = 210;
 b26:	82 ed       	ldi	r24, 0xD2	; 210
 b28:	90 e0       	ldi	r25, 0x00	; 0
 b2a:	90 93 9d 00 	sts	0x009D, r25	; 0x80009d <__data_end+0x1>
 b2e:	80 93 9c 00 	sts	0x009C, r24	; 0x80009c <__data_end>
		}
		
		if (float_ADC3>210)	{
 b32:	20 e0       	ldi	r18, 0x00	; 0
 b34:	30 e0       	ldi	r19, 0x00	; 0
 b36:	42 e5       	ldi	r20, 0x52	; 82
 b38:	53 e4       	ldi	r21, 0x43	; 67
 b3a:	60 91 a4 00 	lds	r22, 0x00A4	; 0x8000a4 <float_ADC3>
 b3e:	70 91 a5 00 	lds	r23, 0x00A5	; 0x8000a5 <float_ADC3+0x1>
 b42:	80 91 a6 00 	lds	r24, 0x00A6	; 0x8000a6 <float_ADC3+0x2>
 b46:	90 91 a7 00 	lds	r25, 0x00A7	; 0x8000a7 <float_ADC3+0x3>
 b4a:	c6 d1       	rcall	.+908    	; 0xed8 <__gesf2>
 b4c:	18 16       	cp	r1, r24
 b4e:	0c f0       	brlt	.+2      	; 0xb52 <__stack+0x6f3>
 b50:	5c c0       	rjmp	.+184    	; 0xc0a <__stack+0x7ab>
 b52:	d7 01       	movw	r26, r14
 b54:	12 96       	adiw	r26, 0x02	; 2
 b56:	ed 91       	ld	r30, X+
 b58:	fc 91       	ld	r31, X
 b5a:	13 97       	sbiw	r26, 0x03	; 3
	*port_and_number.DDR = byteBuferPort;
}

void digitalWrite(struct_GPIO port_and_number, enumLevel Level)	{
	byte byteBuferPort = *port_and_number.PORT;
	byteBuferPort &= ~port_and_number.pinNumber;
 b5c:	14 96       	adiw	r26, 0x04	; 4
 b5e:	8c 91       	ld	r24, X
 b60:	80 95       	com	r24
 b62:	90 81       	ld	r25, Z
 b64:	89 23       	and	r24, r25
	if (Level)	{
		Level = 0b11111111;
	}
	byteBuferPort |= (port_and_number.pinNumber & Level);
	*port_and_number.PORT = byteBuferPort;
 b66:	80 83       	st	Z, r24
 b68:	d8 01       	movw	r26, r16
 b6a:	12 96       	adiw	r26, 0x02	; 2
 b6c:	ed 91       	ld	r30, X+
 b6e:	fc 91       	ld	r31, X
 b70:	13 97       	sbiw	r26, 0x03	; 3
	*port_and_number.DDR = byteBuferPort;
}

void digitalWrite(struct_GPIO port_and_number, enumLevel Level)	{
	byte byteBuferPort = *port_and_number.PORT;
	byteBuferPort &= ~port_and_number.pinNumber;
 b72:	14 96       	adiw	r26, 0x04	; 4
 b74:	8c 91       	ld	r24, X
 b76:	80 95       	com	r24
 b78:	90 81       	ld	r25, Z
 b7a:	89 23       	and	r24, r25
	if (Level)	{
		Level = 0b11111111;
	}
	byteBuferPort |= (port_and_number.pinNumber & Level);
	*port_and_number.PORT = byteBuferPort;
 b7c:	80 83       	st	Z, r24
 b7e:	e0 91 b4 00 	lds	r30, 0x00B4	; 0x8000b4 <LED3+0x2>
 b82:	f0 91 b5 00 	lds	r31, 0x00B5	; 0x8000b5 <LED3+0x3>
	*port_and_number.DDR = byteBuferPort;
}

void digitalWrite(struct_GPIO port_and_number, enumLevel Level)	{
	byte byteBuferPort = *port_and_number.PORT;
	byteBuferPort &= ~port_and_number.pinNumber;
 b86:	80 91 b6 00 	lds	r24, 0x00B6	; 0x8000b6 <LED3+0x4>
 b8a:	80 95       	com	r24
 b8c:	90 81       	ld	r25, Z
 b8e:	89 23       	and	r24, r25
	if (Level)	{
		Level = 0b11111111;
	}
	byteBuferPort |= (port_and_number.pinNumber & Level);
	*port_and_number.PORT = byteBuferPort;
 b90:	80 83       	st	Z, r24
 b92:	d6 01       	movw	r26, r12
 b94:	12 96       	adiw	r26, 0x02	; 2
 b96:	ed 91       	ld	r30, X+
 b98:	fc 91       	ld	r31, X
 b9a:	13 97       	sbiw	r26, 0x03	; 3
	*port_and_number.DDR = byteBuferPort;
}

void digitalWrite(struct_GPIO port_and_number, enumLevel Level)	{
	byte byteBuferPort = *port_and_number.PORT;
	byteBuferPort &= ~port_and_number.pinNumber;
 b9c:	14 96       	adiw	r26, 0x04	; 4
 b9e:	8c 91       	ld	r24, X
 ba0:	80 95       	com	r24
 ba2:	90 81       	ld	r25, Z
 ba4:	89 23       	and	r24, r25
	if (Level)	{
		Level = 0b11111111;
	}
	byteBuferPort |= (port_and_number.pinNumber & Level);
	*port_and_number.PORT = byteBuferPort;
 ba6:	80 83       	st	Z, r24
 ba8:	e0 91 c3 00 	lds	r30, 0x00C3	; 0x8000c3 <LED5+0x2>
 bac:	f0 91 c4 00 	lds	r31, 0x00C4	; 0x8000c4 <LED5+0x3>
	*port_and_number.DDR = byteBuferPort;
}

void digitalWrite(struct_GPIO port_and_number, enumLevel Level)	{
	byte byteBuferPort = *port_and_number.PORT;
	byteBuferPort &= ~port_and_number.pinNumber;
 bb0:	80 91 c5 00 	lds	r24, 0x00C5	; 0x8000c5 <LED5+0x4>
 bb4:	80 95       	com	r24
 bb6:	90 81       	ld	r25, Z
 bb8:	89 23       	and	r24, r25
	if (Level)	{
		Level = 0b11111111;
	}
	byteBuferPort |= (port_and_number.pinNumber & Level);
	*port_and_number.PORT = byteBuferPort;
 bba:	80 83       	st	Z, r24
 bbc:	e0 91 aa 00 	lds	r30, 0x00AA	; 0x8000aa <LED6+0x2>
 bc0:	f0 91 ab 00 	lds	r31, 0x00AB	; 0x8000ab <LED6+0x3>
	*port_and_number.DDR = byteBuferPort;
}

void digitalWrite(struct_GPIO port_and_number, enumLevel Level)	{
	byte byteBuferPort = *port_and_number.PORT;
	byteBuferPort &= ~port_and_number.pinNumber;
 bc4:	80 91 ac 00 	lds	r24, 0x00AC	; 0x8000ac <LED6+0x4>
 bc8:	80 95       	com	r24
 bca:	90 81       	ld	r25, Z
 bcc:	89 23       	and	r24, r25
	if (Level)	{
		Level = 0b11111111;
	}
	byteBuferPort |= (port_and_number.pinNumber & Level);
	*port_and_number.PORT = byteBuferPort;
 bce:	80 83       	st	Z, r24
 bd0:	e0 91 b9 00 	lds	r30, 0x00B9	; 0x8000b9 <LED7+0x2>
 bd4:	f0 91 ba 00 	lds	r31, 0x00BA	; 0x8000ba <LED7+0x3>
	*port_and_number.DDR = byteBuferPort;
}

void digitalWrite(struct_GPIO port_and_number, enumLevel Level)	{
	byte byteBuferPort = *port_and_number.PORT;
	byteBuferPort &= ~port_and_number.pinNumber;
 bd8:	80 91 bb 00 	lds	r24, 0x00BB	; 0x8000bb <LED7+0x4>
 bdc:	80 95       	com	r24
 bde:	90 81       	ld	r25, Z
 be0:	89 23       	and	r24, r25
	if (Level)	{
		Level = 0b11111111;
	}
	byteBuferPort |= (port_and_number.pinNumber & Level);
	*port_and_number.PORT = byteBuferPort;
 be2:	80 83       	st	Z, r24
 be4:	d2 01       	movw	r26, r4
 be6:	12 96       	adiw	r26, 0x02	; 2
 be8:	ed 91       	ld	r30, X+
 bea:	fc 91       	ld	r31, X
 bec:	13 97       	sbiw	r26, 0x03	; 3
 bee:	14 96       	adiw	r26, 0x04	; 4
 bf0:	8c 91       	ld	r24, X
	*port_and_number.DDR = byteBuferPort;
}

void digitalWrite(struct_GPIO port_and_number, enumLevel Level)	{
	byte byteBuferPort = *port_and_number.PORT;
	byteBuferPort &= ~port_and_number.pinNumber;
 bf2:	28 2f       	mov	r18, r24
 bf4:	20 95       	com	r18
 bf6:	90 81       	ld	r25, Z
 bf8:	92 23       	and	r25, r18
	if (Level)	{
		Level = 0b11111111;
	}
	byteBuferPort |= (port_and_number.pinNumber & Level);
	*port_and_number.PORT = byteBuferPort;
 bfa:	89 2b       	or	r24, r25
 bfc:	80 83       	st	Z, r24
			digitalWrite(LED4, LOW);
			digitalWrite(LED5, LOW);
			digitalWrite(LED6, LOW);
			digitalWrite(LED7, LOW);
			digitalWrite(LED8, HIGH);
			limit = 255;
 bfe:	8f ef       	ldi	r24, 0xFF	; 255
 c00:	90 e0       	ldi	r25, 0x00	; 0
 c02:	90 93 9d 00 	sts	0x009D, r25	; 0x80009d <__data_end+0x1>
 c06:	80 93 9c 00 	sts	0x009C, r24	; 0x80009c <__data_end>
		}
		
		float_ADC3_last = float_ADC3;
 c0a:	80 91 a4 00 	lds	r24, 0x00A4	; 0x8000a4 <float_ADC3>
 c0e:	90 91 a5 00 	lds	r25, 0x00A5	; 0x8000a5 <float_ADC3+0x1>
 c12:	a0 91 a6 00 	lds	r26, 0x00A6	; 0x8000a6 <float_ADC3+0x2>
 c16:	b0 91 a7 00 	lds	r27, 0x00A7	; 0x8000a7 <float_ADC3+0x3>
 c1a:	80 93 a0 00 	sts	0x00A0, r24	; 0x8000a0 <float_ADC3_last>
 c1e:	90 93 a1 00 	sts	0x00A1, r25	; 0x8000a1 <float_ADC3_last+0x1>
 c22:	a0 93 a2 00 	sts	0x00A2, r26	; 0x8000a2 <float_ADC3_last+0x2>
 c26:	b0 93 a3 00 	sts	0x00A3, r27	; 0x8000a3 <float_ADC3_last+0x3>
		
		//	PB1 -> PWM2, timer1, canal A
		//	PB2 -> PWM1, timer1, canal B
		
		
		if (count>255)	{
 c2a:	80 91 9e 00 	lds	r24, 0x009E	; 0x80009e <count>
 c2e:	90 91 9f 00 	lds	r25, 0x009F	; 0x80009f <count+0x1>
 c32:	8f 3f       	cpi	r24, 0xFF	; 255
 c34:	91 05       	cpc	r25, r1
 c36:	29 f0       	breq	.+10     	; 0xc42 <__stack+0x7e3>
 c38:	24 f0       	brlt	.+8      	; 0xc42 <__stack+0x7e3>
			count = 0;
 c3a:	10 92 9f 00 	sts	0x009F, r1	; 0x80009f <count+0x1>
 c3e:	10 92 9e 00 	sts	0x009E, r1	; 0x80009e <count>
		}
		if ( limit <= count )	{
 c42:	20 91 9c 00 	lds	r18, 0x009C	; 0x80009c <__data_end>
 c46:	30 91 9d 00 	lds	r19, 0x009D	; 0x80009d <__data_end+0x1>
 c4a:	80 91 9e 00 	lds	r24, 0x009E	; 0x80009e <count>
 c4e:	90 91 9f 00 	lds	r25, 0x009F	; 0x80009f <count+0x1>
 c52:	82 17       	cp	r24, r18
 c54:	93 07       	cpc	r25, r19
 c56:	6c f0       	brlt	.+26     	; 0xc72 <__stack+0x813>
 c58:	a6 e9       	ldi	r26, 0x96	; 150
 c5a:	b0 e0       	ldi	r27, 0x00	; 0
 c5c:	12 96       	adiw	r26, 0x02	; 2
 c5e:	ed 91       	ld	r30, X+
 c60:	fc 91       	ld	r31, X
 c62:	13 97       	sbiw	r26, 0x03	; 3
	*port_and_number.DDR = byteBuferPort;
}

void digitalWrite(struct_GPIO port_and_number, enumLevel Level)	{
	byte byteBuferPort = *port_and_number.PORT;
	byteBuferPort &= ~port_and_number.pinNumber;
 c64:	14 96       	adiw	r26, 0x04	; 4
 c66:	8c 91       	ld	r24, X
 c68:	80 95       	com	r24
 c6a:	90 81       	ld	r25, Z
 c6c:	89 23       	and	r24, r25
	if (Level)	{
		Level = 0b11111111;
	}
	byteBuferPort |= (port_and_number.pinNumber & Level);
	*port_and_number.PORT = byteBuferPort;
 c6e:	80 83       	st	Z, r24
 c70:	0e c0       	rjmp	.+28     	; 0xc8e <__stack+0x82f>
 c72:	a6 e9       	ldi	r26, 0x96	; 150
 c74:	b0 e0       	ldi	r27, 0x00	; 0
 c76:	12 96       	adiw	r26, 0x02	; 2
 c78:	ed 91       	ld	r30, X+
 c7a:	fc 91       	ld	r31, X
 c7c:	13 97       	sbiw	r26, 0x03	; 3
 c7e:	14 96       	adiw	r26, 0x04	; 4
 c80:	8c 91       	ld	r24, X
	*port_and_number.DDR = byteBuferPort;
}

void digitalWrite(struct_GPIO port_and_number, enumLevel Level)	{
	byte byteBuferPort = *port_and_number.PORT;
	byteBuferPort &= ~port_and_number.pinNumber;
 c82:	28 2f       	mov	r18, r24
 c84:	20 95       	com	r18
 c86:	90 81       	ld	r25, Z
 c88:	92 23       	and	r25, r18
	if (Level)	{
		Level = 0b11111111;
	}
	byteBuferPort |= (port_and_number.pinNumber & Level);
	*port_and_number.PORT = byteBuferPort;
 c8a:	89 2b       	or	r24, r25
 c8c:	80 83       	st	Z, r24
			digitalWrite(B1, LOW);
		}
		else	{
			digitalWrite(B1, HIGH);
		}
		count++;
 c8e:	80 91 9e 00 	lds	r24, 0x009E	; 0x80009e <count>
 c92:	90 91 9f 00 	lds	r25, 0x009F	; 0x80009f <count+0x1>
 c96:	01 96       	adiw	r24, 0x01	; 1
 c98:	90 93 9f 00 	sts	0x009F, r25	; 0x80009f <count+0x1>
 c9c:	80 93 9e 00 	sts	0x009E, r24	; 0x80009e <count>
		
		
    }
 ca0:	2f cb       	rjmp	.-2466   	; 0x300 <main+0x27a>

00000ca2 <__subsf3>:
 ca2:	50 58       	subi	r21, 0x80	; 128

00000ca4 <__addsf3>:
 ca4:	bb 27       	eor	r27, r27
 ca6:	aa 27       	eor	r26, r26
 ca8:	0e d0       	rcall	.+28     	; 0xcc6 <__addsf3x>
 caa:	dc c0       	rjmp	.+440    	; 0xe64 <__fp_round>
 cac:	cd d0       	rcall	.+410    	; 0xe48 <__fp_pscA>
 cae:	30 f0       	brcs	.+12     	; 0xcbc <__addsf3+0x18>
 cb0:	d2 d0       	rcall	.+420    	; 0xe56 <__fp_pscB>
 cb2:	20 f0       	brcs	.+8      	; 0xcbc <__addsf3+0x18>
 cb4:	31 f4       	brne	.+12     	; 0xcc2 <__addsf3+0x1e>
 cb6:	9f 3f       	cpi	r25, 0xFF	; 255
 cb8:	11 f4       	brne	.+4      	; 0xcbe <__addsf3+0x1a>
 cba:	1e f4       	brtc	.+6      	; 0xcc2 <__addsf3+0x1e>
 cbc:	c2 c0       	rjmp	.+388    	; 0xe42 <__fp_nan>
 cbe:	0e f4       	brtc	.+2      	; 0xcc2 <__addsf3+0x1e>
 cc0:	e0 95       	com	r30
 cc2:	e7 fb       	bst	r30, 7
 cc4:	b8 c0       	rjmp	.+368    	; 0xe36 <__fp_inf>

00000cc6 <__addsf3x>:
 cc6:	e9 2f       	mov	r30, r25
 cc8:	de d0       	rcall	.+444    	; 0xe86 <__fp_split3>
 cca:	80 f3       	brcs	.-32     	; 0xcac <__addsf3+0x8>
 ccc:	ba 17       	cp	r27, r26
 cce:	62 07       	cpc	r22, r18
 cd0:	73 07       	cpc	r23, r19
 cd2:	84 07       	cpc	r24, r20
 cd4:	95 07       	cpc	r25, r21
 cd6:	18 f0       	brcs	.+6      	; 0xcde <__addsf3x+0x18>
 cd8:	71 f4       	brne	.+28     	; 0xcf6 <__addsf3x+0x30>
 cda:	9e f5       	brtc	.+102    	; 0xd42 <__addsf3x+0x7c>
 cdc:	f6 c0       	rjmp	.+492    	; 0xeca <__fp_zero>
 cde:	0e f4       	brtc	.+2      	; 0xce2 <__addsf3x+0x1c>
 ce0:	e0 95       	com	r30
 ce2:	0b 2e       	mov	r0, r27
 ce4:	ba 2f       	mov	r27, r26
 ce6:	a0 2d       	mov	r26, r0
 ce8:	0b 01       	movw	r0, r22
 cea:	b9 01       	movw	r22, r18
 cec:	90 01       	movw	r18, r0
 cee:	0c 01       	movw	r0, r24
 cf0:	ca 01       	movw	r24, r20
 cf2:	a0 01       	movw	r20, r0
 cf4:	11 24       	eor	r1, r1
 cf6:	ff 27       	eor	r31, r31
 cf8:	59 1b       	sub	r21, r25
 cfa:	99 f0       	breq	.+38     	; 0xd22 <__addsf3x+0x5c>
 cfc:	59 3f       	cpi	r21, 0xF9	; 249
 cfe:	50 f4       	brcc	.+20     	; 0xd14 <__addsf3x+0x4e>
 d00:	50 3e       	cpi	r21, 0xE0	; 224
 d02:	68 f1       	brcs	.+90     	; 0xd5e <__addsf3x+0x98>
 d04:	1a 16       	cp	r1, r26
 d06:	f0 40       	sbci	r31, 0x00	; 0
 d08:	a2 2f       	mov	r26, r18
 d0a:	23 2f       	mov	r18, r19
 d0c:	34 2f       	mov	r19, r20
 d0e:	44 27       	eor	r20, r20
 d10:	58 5f       	subi	r21, 0xF8	; 248
 d12:	f3 cf       	rjmp	.-26     	; 0xcfa <__addsf3x+0x34>
 d14:	46 95       	lsr	r20
 d16:	37 95       	ror	r19
 d18:	27 95       	ror	r18
 d1a:	a7 95       	ror	r26
 d1c:	f0 40       	sbci	r31, 0x00	; 0
 d1e:	53 95       	inc	r21
 d20:	c9 f7       	brne	.-14     	; 0xd14 <__addsf3x+0x4e>
 d22:	7e f4       	brtc	.+30     	; 0xd42 <__addsf3x+0x7c>
 d24:	1f 16       	cp	r1, r31
 d26:	ba 0b       	sbc	r27, r26
 d28:	62 0b       	sbc	r22, r18
 d2a:	73 0b       	sbc	r23, r19
 d2c:	84 0b       	sbc	r24, r20
 d2e:	ba f0       	brmi	.+46     	; 0xd5e <__addsf3x+0x98>
 d30:	91 50       	subi	r25, 0x01	; 1
 d32:	a1 f0       	breq	.+40     	; 0xd5c <__addsf3x+0x96>
 d34:	ff 0f       	add	r31, r31
 d36:	bb 1f       	adc	r27, r27
 d38:	66 1f       	adc	r22, r22
 d3a:	77 1f       	adc	r23, r23
 d3c:	88 1f       	adc	r24, r24
 d3e:	c2 f7       	brpl	.-16     	; 0xd30 <__addsf3x+0x6a>
 d40:	0e c0       	rjmp	.+28     	; 0xd5e <__addsf3x+0x98>
 d42:	ba 0f       	add	r27, r26
 d44:	62 1f       	adc	r22, r18
 d46:	73 1f       	adc	r23, r19
 d48:	84 1f       	adc	r24, r20
 d4a:	48 f4       	brcc	.+18     	; 0xd5e <__addsf3x+0x98>
 d4c:	87 95       	ror	r24
 d4e:	77 95       	ror	r23
 d50:	67 95       	ror	r22
 d52:	b7 95       	ror	r27
 d54:	f7 95       	ror	r31
 d56:	9e 3f       	cpi	r25, 0xFE	; 254
 d58:	08 f0       	brcs	.+2      	; 0xd5c <__addsf3x+0x96>
 d5a:	b3 cf       	rjmp	.-154    	; 0xcc2 <__addsf3+0x1e>
 d5c:	93 95       	inc	r25
 d5e:	88 0f       	add	r24, r24
 d60:	08 f0       	brcs	.+2      	; 0xd64 <__addsf3x+0x9e>
 d62:	99 27       	eor	r25, r25
 d64:	ee 0f       	add	r30, r30
 d66:	97 95       	ror	r25
 d68:	87 95       	ror	r24
 d6a:	08 95       	ret

00000d6c <__cmpsf2>:
 d6c:	40 d0       	rcall	.+128    	; 0xdee <__fp_cmp>
 d6e:	08 f4       	brcc	.+2      	; 0xd72 <__cmpsf2+0x6>
 d70:	81 e0       	ldi	r24, 0x01	; 1
 d72:	08 95       	ret

00000d74 <__floatunsisf>:
 d74:	e8 94       	clt
 d76:	09 c0       	rjmp	.+18     	; 0xd8a <__floatsisf+0x12>

00000d78 <__floatsisf>:
 d78:	97 fb       	bst	r25, 7
 d7a:	3e f4       	brtc	.+14     	; 0xd8a <__floatsisf+0x12>
 d7c:	90 95       	com	r25
 d7e:	80 95       	com	r24
 d80:	70 95       	com	r23
 d82:	61 95       	neg	r22
 d84:	7f 4f       	sbci	r23, 0xFF	; 255
 d86:	8f 4f       	sbci	r24, 0xFF	; 255
 d88:	9f 4f       	sbci	r25, 0xFF	; 255
 d8a:	99 23       	and	r25, r25
 d8c:	a9 f0       	breq	.+42     	; 0xdb8 <__floatsisf+0x40>
 d8e:	f9 2f       	mov	r31, r25
 d90:	96 e9       	ldi	r25, 0x96	; 150
 d92:	bb 27       	eor	r27, r27
 d94:	93 95       	inc	r25
 d96:	f6 95       	lsr	r31
 d98:	87 95       	ror	r24
 d9a:	77 95       	ror	r23
 d9c:	67 95       	ror	r22
 d9e:	b7 95       	ror	r27
 da0:	f1 11       	cpse	r31, r1
 da2:	f8 cf       	rjmp	.-16     	; 0xd94 <__floatsisf+0x1c>
 da4:	fa f4       	brpl	.+62     	; 0xde4 <__floatsisf+0x6c>
 da6:	bb 0f       	add	r27, r27
 da8:	11 f4       	brne	.+4      	; 0xdae <__floatsisf+0x36>
 daa:	60 ff       	sbrs	r22, 0
 dac:	1b c0       	rjmp	.+54     	; 0xde4 <__floatsisf+0x6c>
 dae:	6f 5f       	subi	r22, 0xFF	; 255
 db0:	7f 4f       	sbci	r23, 0xFF	; 255
 db2:	8f 4f       	sbci	r24, 0xFF	; 255
 db4:	9f 4f       	sbci	r25, 0xFF	; 255
 db6:	16 c0       	rjmp	.+44     	; 0xde4 <__floatsisf+0x6c>
 db8:	88 23       	and	r24, r24
 dba:	11 f0       	breq	.+4      	; 0xdc0 <__floatsisf+0x48>
 dbc:	96 e9       	ldi	r25, 0x96	; 150
 dbe:	11 c0       	rjmp	.+34     	; 0xde2 <__floatsisf+0x6a>
 dc0:	77 23       	and	r23, r23
 dc2:	21 f0       	breq	.+8      	; 0xdcc <__floatsisf+0x54>
 dc4:	9e e8       	ldi	r25, 0x8E	; 142
 dc6:	87 2f       	mov	r24, r23
 dc8:	76 2f       	mov	r23, r22
 dca:	05 c0       	rjmp	.+10     	; 0xdd6 <__floatsisf+0x5e>
 dcc:	66 23       	and	r22, r22
 dce:	71 f0       	breq	.+28     	; 0xdec <__floatsisf+0x74>
 dd0:	96 e8       	ldi	r25, 0x86	; 134
 dd2:	86 2f       	mov	r24, r22
 dd4:	70 e0       	ldi	r23, 0x00	; 0
 dd6:	60 e0       	ldi	r22, 0x00	; 0
 dd8:	2a f0       	brmi	.+10     	; 0xde4 <__floatsisf+0x6c>
 dda:	9a 95       	dec	r25
 ddc:	66 0f       	add	r22, r22
 dde:	77 1f       	adc	r23, r23
 de0:	88 1f       	adc	r24, r24
 de2:	da f7       	brpl	.-10     	; 0xdda <__floatsisf+0x62>
 de4:	88 0f       	add	r24, r24
 de6:	96 95       	lsr	r25
 de8:	87 95       	ror	r24
 dea:	97 f9       	bld	r25, 7
 dec:	08 95       	ret

00000dee <__fp_cmp>:
 dee:	99 0f       	add	r25, r25
 df0:	00 08       	sbc	r0, r0
 df2:	55 0f       	add	r21, r21
 df4:	aa 0b       	sbc	r26, r26
 df6:	e0 e8       	ldi	r30, 0x80	; 128
 df8:	fe ef       	ldi	r31, 0xFE	; 254
 dfa:	16 16       	cp	r1, r22
 dfc:	17 06       	cpc	r1, r23
 dfe:	e8 07       	cpc	r30, r24
 e00:	f9 07       	cpc	r31, r25
 e02:	c0 f0       	brcs	.+48     	; 0xe34 <__fp_cmp+0x46>
 e04:	12 16       	cp	r1, r18
 e06:	13 06       	cpc	r1, r19
 e08:	e4 07       	cpc	r30, r20
 e0a:	f5 07       	cpc	r31, r21
 e0c:	98 f0       	brcs	.+38     	; 0xe34 <__fp_cmp+0x46>
 e0e:	62 1b       	sub	r22, r18
 e10:	73 0b       	sbc	r23, r19
 e12:	84 0b       	sbc	r24, r20
 e14:	95 0b       	sbc	r25, r21
 e16:	39 f4       	brne	.+14     	; 0xe26 <__fp_cmp+0x38>
 e18:	0a 26       	eor	r0, r26
 e1a:	61 f0       	breq	.+24     	; 0xe34 <__fp_cmp+0x46>
 e1c:	23 2b       	or	r18, r19
 e1e:	24 2b       	or	r18, r20
 e20:	25 2b       	or	r18, r21
 e22:	21 f4       	brne	.+8      	; 0xe2c <__fp_cmp+0x3e>
 e24:	08 95       	ret
 e26:	0a 26       	eor	r0, r26
 e28:	09 f4       	brne	.+2      	; 0xe2c <__fp_cmp+0x3e>
 e2a:	a1 40       	sbci	r26, 0x01	; 1
 e2c:	a6 95       	lsr	r26
 e2e:	8f ef       	ldi	r24, 0xFF	; 255
 e30:	81 1d       	adc	r24, r1
 e32:	81 1d       	adc	r24, r1
 e34:	08 95       	ret

00000e36 <__fp_inf>:
 e36:	97 f9       	bld	r25, 7
 e38:	9f 67       	ori	r25, 0x7F	; 127
 e3a:	80 e8       	ldi	r24, 0x80	; 128
 e3c:	70 e0       	ldi	r23, 0x00	; 0
 e3e:	60 e0       	ldi	r22, 0x00	; 0
 e40:	08 95       	ret

00000e42 <__fp_nan>:
 e42:	9f ef       	ldi	r25, 0xFF	; 255
 e44:	80 ec       	ldi	r24, 0xC0	; 192
 e46:	08 95       	ret

00000e48 <__fp_pscA>:
 e48:	00 24       	eor	r0, r0
 e4a:	0a 94       	dec	r0
 e4c:	16 16       	cp	r1, r22
 e4e:	17 06       	cpc	r1, r23
 e50:	18 06       	cpc	r1, r24
 e52:	09 06       	cpc	r0, r25
 e54:	08 95       	ret

00000e56 <__fp_pscB>:
 e56:	00 24       	eor	r0, r0
 e58:	0a 94       	dec	r0
 e5a:	12 16       	cp	r1, r18
 e5c:	13 06       	cpc	r1, r19
 e5e:	14 06       	cpc	r1, r20
 e60:	05 06       	cpc	r0, r21
 e62:	08 95       	ret

00000e64 <__fp_round>:
 e64:	09 2e       	mov	r0, r25
 e66:	03 94       	inc	r0
 e68:	00 0c       	add	r0, r0
 e6a:	11 f4       	brne	.+4      	; 0xe70 <__fp_round+0xc>
 e6c:	88 23       	and	r24, r24
 e6e:	52 f0       	brmi	.+20     	; 0xe84 <__fp_round+0x20>
 e70:	bb 0f       	add	r27, r27
 e72:	40 f4       	brcc	.+16     	; 0xe84 <__fp_round+0x20>
 e74:	bf 2b       	or	r27, r31
 e76:	11 f4       	brne	.+4      	; 0xe7c <__fp_round+0x18>
 e78:	60 ff       	sbrs	r22, 0
 e7a:	04 c0       	rjmp	.+8      	; 0xe84 <__fp_round+0x20>
 e7c:	6f 5f       	subi	r22, 0xFF	; 255
 e7e:	7f 4f       	sbci	r23, 0xFF	; 255
 e80:	8f 4f       	sbci	r24, 0xFF	; 255
 e82:	9f 4f       	sbci	r25, 0xFF	; 255
 e84:	08 95       	ret

00000e86 <__fp_split3>:
 e86:	57 fd       	sbrc	r21, 7
 e88:	90 58       	subi	r25, 0x80	; 128
 e8a:	44 0f       	add	r20, r20
 e8c:	55 1f       	adc	r21, r21
 e8e:	59 f0       	breq	.+22     	; 0xea6 <__fp_splitA+0x10>
 e90:	5f 3f       	cpi	r21, 0xFF	; 255
 e92:	71 f0       	breq	.+28     	; 0xeb0 <__fp_splitA+0x1a>
 e94:	47 95       	ror	r20

00000e96 <__fp_splitA>:
 e96:	88 0f       	add	r24, r24
 e98:	97 fb       	bst	r25, 7
 e9a:	99 1f       	adc	r25, r25
 e9c:	61 f0       	breq	.+24     	; 0xeb6 <__fp_splitA+0x20>
 e9e:	9f 3f       	cpi	r25, 0xFF	; 255
 ea0:	79 f0       	breq	.+30     	; 0xec0 <__fp_splitA+0x2a>
 ea2:	87 95       	ror	r24
 ea4:	08 95       	ret
 ea6:	12 16       	cp	r1, r18
 ea8:	13 06       	cpc	r1, r19
 eaa:	14 06       	cpc	r1, r20
 eac:	55 1f       	adc	r21, r21
 eae:	f2 cf       	rjmp	.-28     	; 0xe94 <__fp_split3+0xe>
 eb0:	46 95       	lsr	r20
 eb2:	f1 df       	rcall	.-30     	; 0xe96 <__fp_splitA>
 eb4:	08 c0       	rjmp	.+16     	; 0xec6 <__fp_splitA+0x30>
 eb6:	16 16       	cp	r1, r22
 eb8:	17 06       	cpc	r1, r23
 eba:	18 06       	cpc	r1, r24
 ebc:	99 1f       	adc	r25, r25
 ebe:	f1 cf       	rjmp	.-30     	; 0xea2 <__fp_splitA+0xc>
 ec0:	86 95       	lsr	r24
 ec2:	71 05       	cpc	r23, r1
 ec4:	61 05       	cpc	r22, r1
 ec6:	08 94       	sec
 ec8:	08 95       	ret

00000eca <__fp_zero>:
 eca:	e8 94       	clt

00000ecc <__fp_szero>:
 ecc:	bb 27       	eor	r27, r27
 ece:	66 27       	eor	r22, r22
 ed0:	77 27       	eor	r23, r23
 ed2:	cb 01       	movw	r24, r22
 ed4:	97 f9       	bld	r25, 7
 ed6:	08 95       	ret

00000ed8 <__gesf2>:
 ed8:	8a df       	rcall	.-236    	; 0xdee <__fp_cmp>
 eda:	08 f4       	brcc	.+2      	; 0xede <__gesf2+0x6>
 edc:	8f ef       	ldi	r24, 0xFF	; 255
 ede:	08 95       	ret

00000ee0 <__mulsf3>:
 ee0:	0b d0       	rcall	.+22     	; 0xef8 <__mulsf3x>
 ee2:	c0 cf       	rjmp	.-128    	; 0xe64 <__fp_round>
 ee4:	b1 df       	rcall	.-158    	; 0xe48 <__fp_pscA>
 ee6:	28 f0       	brcs	.+10     	; 0xef2 <__mulsf3+0x12>
 ee8:	b6 df       	rcall	.-148    	; 0xe56 <__fp_pscB>
 eea:	18 f0       	brcs	.+6      	; 0xef2 <__mulsf3+0x12>
 eec:	95 23       	and	r25, r21
 eee:	09 f0       	breq	.+2      	; 0xef2 <__mulsf3+0x12>
 ef0:	a2 cf       	rjmp	.-188    	; 0xe36 <__fp_inf>
 ef2:	a7 cf       	rjmp	.-178    	; 0xe42 <__fp_nan>
 ef4:	11 24       	eor	r1, r1
 ef6:	ea cf       	rjmp	.-44     	; 0xecc <__fp_szero>

00000ef8 <__mulsf3x>:
 ef8:	c6 df       	rcall	.-116    	; 0xe86 <__fp_split3>
 efa:	a0 f3       	brcs	.-24     	; 0xee4 <__mulsf3+0x4>

00000efc <__mulsf3_pse>:
 efc:	95 9f       	mul	r25, r21
 efe:	d1 f3       	breq	.-12     	; 0xef4 <__mulsf3+0x14>
 f00:	95 0f       	add	r25, r21
 f02:	50 e0       	ldi	r21, 0x00	; 0
 f04:	55 1f       	adc	r21, r21
 f06:	62 9f       	mul	r22, r18
 f08:	f0 01       	movw	r30, r0
 f0a:	72 9f       	mul	r23, r18
 f0c:	bb 27       	eor	r27, r27
 f0e:	f0 0d       	add	r31, r0
 f10:	b1 1d       	adc	r27, r1
 f12:	63 9f       	mul	r22, r19
 f14:	aa 27       	eor	r26, r26
 f16:	f0 0d       	add	r31, r0
 f18:	b1 1d       	adc	r27, r1
 f1a:	aa 1f       	adc	r26, r26
 f1c:	64 9f       	mul	r22, r20
 f1e:	66 27       	eor	r22, r22
 f20:	b0 0d       	add	r27, r0
 f22:	a1 1d       	adc	r26, r1
 f24:	66 1f       	adc	r22, r22
 f26:	82 9f       	mul	r24, r18
 f28:	22 27       	eor	r18, r18
 f2a:	b0 0d       	add	r27, r0
 f2c:	a1 1d       	adc	r26, r1
 f2e:	62 1f       	adc	r22, r18
 f30:	73 9f       	mul	r23, r19
 f32:	b0 0d       	add	r27, r0
 f34:	a1 1d       	adc	r26, r1
 f36:	62 1f       	adc	r22, r18
 f38:	83 9f       	mul	r24, r19
 f3a:	a0 0d       	add	r26, r0
 f3c:	61 1d       	adc	r22, r1
 f3e:	22 1f       	adc	r18, r18
 f40:	74 9f       	mul	r23, r20
 f42:	33 27       	eor	r19, r19
 f44:	a0 0d       	add	r26, r0
 f46:	61 1d       	adc	r22, r1
 f48:	23 1f       	adc	r18, r19
 f4a:	84 9f       	mul	r24, r20
 f4c:	60 0d       	add	r22, r0
 f4e:	21 1d       	adc	r18, r1
 f50:	82 2f       	mov	r24, r18
 f52:	76 2f       	mov	r23, r22
 f54:	6a 2f       	mov	r22, r26
 f56:	11 24       	eor	r1, r1
 f58:	9f 57       	subi	r25, 0x7F	; 127
 f5a:	50 40       	sbci	r21, 0x00	; 0
 f5c:	8a f0       	brmi	.+34     	; 0xf80 <__mulsf3_pse+0x84>
 f5e:	e1 f0       	breq	.+56     	; 0xf98 <__mulsf3_pse+0x9c>
 f60:	88 23       	and	r24, r24
 f62:	4a f0       	brmi	.+18     	; 0xf76 <__mulsf3_pse+0x7a>
 f64:	ee 0f       	add	r30, r30
 f66:	ff 1f       	adc	r31, r31
 f68:	bb 1f       	adc	r27, r27
 f6a:	66 1f       	adc	r22, r22
 f6c:	77 1f       	adc	r23, r23
 f6e:	88 1f       	adc	r24, r24
 f70:	91 50       	subi	r25, 0x01	; 1
 f72:	50 40       	sbci	r21, 0x00	; 0
 f74:	a9 f7       	brne	.-22     	; 0xf60 <__mulsf3_pse+0x64>
 f76:	9e 3f       	cpi	r25, 0xFE	; 254
 f78:	51 05       	cpc	r21, r1
 f7a:	70 f0       	brcs	.+28     	; 0xf98 <__mulsf3_pse+0x9c>
 f7c:	5c cf       	rjmp	.-328    	; 0xe36 <__fp_inf>
 f7e:	a6 cf       	rjmp	.-180    	; 0xecc <__fp_szero>
 f80:	5f 3f       	cpi	r21, 0xFF	; 255
 f82:	ec f3       	brlt	.-6      	; 0xf7e <__mulsf3_pse+0x82>
 f84:	98 3e       	cpi	r25, 0xE8	; 232
 f86:	dc f3       	brlt	.-10     	; 0xf7e <__mulsf3_pse+0x82>
 f88:	86 95       	lsr	r24
 f8a:	77 95       	ror	r23
 f8c:	67 95       	ror	r22
 f8e:	b7 95       	ror	r27
 f90:	f7 95       	ror	r31
 f92:	e7 95       	ror	r30
 f94:	9f 5f       	subi	r25, 0xFF	; 255
 f96:	c1 f7       	brne	.-16     	; 0xf88 <__mulsf3_pse+0x8c>
 f98:	fe 2b       	or	r31, r30
 f9a:	88 0f       	add	r24, r24
 f9c:	91 1d       	adc	r25, r1
 f9e:	96 95       	lsr	r25
 fa0:	87 95       	ror	r24
 fa2:	97 f9       	bld	r25, 7
 fa4:	08 95       	ret

00000fa6 <_exit>:
 fa6:	f8 94       	cli

00000fa8 <__stop_program>:
 fa8:	ff cf       	rjmp	.-2      	; 0xfa8 <__stop_program>
